   1               		.file	"main.c"
   2               	__SREG__ = 0x3f
   3               	__SP_H__ = 0x3e
   4               	__SP_L__ = 0x3d
   5               	__tmp_reg__ = 0
   6               	__zero_reg__ = 1
   7               		.global __do_copy_data
   8               		.global __do_clear_bss
  16               	.Ltext0:
  17               		.section	.text.__button_event_handler,"ax",@progbits
  18               	.global	__button_event_handler
  20               	__button_event_handler:
  21               	.LFB13:
  22               	.LSM0:
  23               	.LVL0:
  24               	/* prologue: function */
  25               	/* frame size = 0 */
  26               	/* stack size = 0 */
  27               	.L__stack_usage = 0
  28               	.LSM1:
  29 0000 FB01      		movw r30,r22
  30 0002 8081      		ld r24,Z
  31               	.LVL1:
  32 0004 8093 0000 		sts aMug+24,r24
  33               	/* epilogue start */
  34               	.LSM2:
  35 0008 0895      		ret
  36               	.LFE13:
  38               		.section	.text.mugSetCurrentState,"ax",@progbits
  40               	mugSetCurrentState:
  41               	.LFB17:
  42               	.LSM3:
  43               	.LVL2:
  44               	/* prologue: function */
  45               	/* frame size = 0 */
  46               	/* stack size = 0 */
  47               	.L__stack_usage = 0
  48               	.LSM4:
  49 0000 9091 0000 		lds r25,aMug+9
  50 0004 8917      		cp r24,r25
  51 0006 01F0      		breq .L2
  52               	.LSM5:
  53 0008 9093 0000 		sts aMug+8,r25
  54               	.LSM6:
  55 000c 8093 0000 		sts aMug+9,r24
  56               	.L2:
  57 0010 0895      		ret
  58               	.LFE17:
  60               		.section	.text.mugCheckBatteryLevel,"ax",@progbits
  62               	mugCheckBatteryLevel:
  63               	.LFB31:
  64               	.LSM7:
  65               	/* prologue: function */
  66               	/* frame size = 0 */
  67               	/* stack size = 0 */
  68               	.L__stack_usage = 0
  69               	.LVL3:
  70               	.LSM8:
  71 0000 8091 0000 		lds r24,aMug+13
  72 0004 8823      		tst r24
  73 0006 01F4      		brne .L10
  74               	.LBB443:
  75               	.LBB446:
  76               	.LSM9:
  77 0008 8091 7C00 		lds r24,124
  78 000c 807E      		andi r24,lo8(-32)
  79               	.LVL4:
  80               	.L6:
  81               	.LSM10:
  82 000e 9091 7A00 		lds r25,122
  83 0012 96FD      		sbrc r25,6
  84 0014 00C0      		rjmp .L6
  85               	.LSM11:
  86 0016 8460      		ori r24,lo8(4)
  87               	.LVL5:
  88 0018 8093 7C00 		sts 124,r24
  89 001c 8091 7A00 		lds r24,122
  90 0020 8064      		ori r24,lo8(64)
  91 0022 8093 7A00 		sts 122,r24
  92               	.L7:
  93               	.LBE446:
  94               	.LBB444:
  95               	.LBB445:
  96               	.LSM12:
  97 0026 8091 7A00 		lds r24,122
  98 002a 86FD      		sbrc r24,6
  99 002c 00C0      		rjmp .L7
 100               	.LSM13:
 101 002e 8091 7800 		lds r24,120
 102               	.LVL6:
 103               	.LSM14:
 104 0032 9091 7900 		lds r25,121
 105 0036 392F      		mov r19,r25
 106 0038 20E0      		ldi r18,lo8(0)
 107               	.LSM15:
 108 003a 90E0      		ldi r25,lo8(0)
 109               	.LSM16:
 110 003c 822B      		or r24,r18
 111 003e 932B      		or r25,r19
 112               	.LVL7:
 113               	.LBE445:
 114               	.LBE444:
 115               	.LSM17:
 116 0040 2091 0000 		lds r18,aMug+25
 117 0044 3091 0000 		lds r19,aMug+25+1
 118               	.LVL8:
 119               	.LSM18:
 120 0048 2115      		cp r18,__zero_reg__
 121 004a 3105      		cpc r19,__zero_reg__
 122 004c 01F0      		breq .L9
 123               	.L8:
 124               	.LSM19:
 125 004e A901      		movw r20,r18
 126 0050 4550      		subi r20,lo8(-(-5))
 127 0052 5040      		sbci r21,hi8(-(-5))
 128 0054 8417      		cp r24,r20
 129 0056 9507      		cpc r25,r21
 130 0058 00F0      		brlo .L9
 131               	.LSM20:
 132 005a 2B5F      		subi r18,lo8(-(5))
 133 005c 3F4F      		sbci r19,hi8(-(5))
 134               	.LSM21:
 135 005e 2817      		cp r18,r24
 136 0060 3907      		cpc r19,r25
 137 0062 00F4      		brsh .L11
 138               	.L9:
 139               	.LSM22:
 140 0064 9093 0000 		sts aMug+25+1,r25
 141 0068 8093 0000 		sts aMug+25,r24
 142               	.LVL9:
 143               	.LSM23:
 144 006c 81E0      		ldi r24,lo8(1)
 145               	.LVL10:
 146 006e 0895      		ret
 147               	.LVL11:
 148               	.L10:
 149               	.LBE443:
 150               	.LSM24:
 151 0070 80E0      		ldi r24,lo8(0)
 152 0072 0895      		ret
 153               	.LVL12:
 154               	.L11:
 155               	.LBB447:
 156 0074 80E0      		ldi r24,lo8(0)
 157               	.LVL13:
 158               	.LBE447:
 159               	.LSM25:
 160 0076 0895      		ret
 161               	.LFE31:
 163               		.section	.text.gestureHandleValidGesture,"ax",@progbits
 165               	gestureHandleValidGesture:
 166               	.LFB33:
 167               	.LSM26:
 168               	/* prologue: function */
 169               	/* frame size = 0 */
 170               	/* stack size = 0 */
 171               	.L__stack_usage = 0
 172               	.LSM27:
 173 0000 8091 0000 		lds r24,aMug+29
 174 0004 1816      		cp __zero_reg__,r24
 175 0006 04F0      		brlt .L14
 176               	.LSM28:
 177 0008 89E0      		ldi r24,lo8(9)
 178 000a 0E94 0000 		call mugSetCurrentState
 179               	.LSM29:
 180 000e 84E6      		ldi r24,lo8(100)
 181 0010 8093 0000 		sts aMug+29,r24
 182               	.L14:
 183 0014 0895      		ret
 184               	.LFE33:
 186               		.section	.text.mugHandleLongButtonPress,"ax",@progbits
 188               	mugHandleLongButtonPress:
 189               	.LFB41:
 190               	.LSM30:
 191               	/* prologue: function */
 192               	/* frame size = 0 */
 193               	/* stack size = 0 */
 194               	.L__stack_usage = 0
 195               	.LVL14:
 196               	.LSM31:
 197 0000 8091 0000 		lds r24,aMug+9
 198 0004 8C30      		cpi r24,lo8(12)
 199 0006 01F0      		breq .L18
 200 0008 8EE0      		ldi r24,lo8(14)
 201 000a 0895      		ret
 202               	.L18:
 203 000c 85E0      		ldi r24,lo8(5)
 204               	.LVL15:
 205               	.LSM32:
 206 000e 0895      		ret
 207               	.LFE41:
 209               		.section	.text.mugSwitchConsoleTo,"ax",@progbits
 211               	mugSwitchConsoleTo:
 212               	.LFB18:
 213               	.LSM33:
 214               	.LVL16:
 215 0000 1F93      		push r17
 216               	/* prologue: function */
 217               	/* frame size = 0 */
 218               	/* stack size = 1 */
 219               	.L__stack_usage = 1
 220 0002 182F      		mov r17,r24
 221 0004 8091 0000 		lds r24,aMug+16
 222 0008 9091 0000 		lds r25,aMug+16+1
 223               	.LVL17:
 224               	.LSM34:
 225 000c 1130      		cpi r17,lo8(1)
 226 000e 01F4      		brne .L23
 227               	.LSM35:
 228 0010 65E0      		ldi r22,lo8(5)
 229 0012 00C0      		rjmp .L24
 230               	.L23:
 231               	.LSM36:
 232 0014 64E0      		ldi r22,lo8(4)
 233               	.L24:
 234 0016 0E94 0000 		call GPIOSetDirection
 235               	.LSM37:
 236 001a 1093 0000 		sts aMug+12,r17
 237               	/* epilogue start */
 238               	.LSM38:
 239 001e 1F91      		pop r17
 240               	.LVL18:
 241 0020 0895      		ret
 242               	.LFE18:
 244               		.section	.text.mugUpdateBatteryIcon,"ax",@progbits
 246               	mugUpdateBatteryIcon:
 247               	.LFB29:
 248               	.LSM39:
 249 0000 FF92      		push r15
 250 0002 0F93      		push r16
 251 0004 1F93      		push r17
 252               	/* prologue: function */
 253               	/* frame size = 0 */
 254               	/* stack size = 3 */
 255               	.L__stack_usage = 3
 256               	.LSM40:
 257 0006 8091 0000 		lds r24,aMug+25
 258 000a 9091 0000 		lds r25,aMug+25+1
 259               	.LVL19:
 260               	.LBB448:
 261               	.LBB449:
 262               	.LSM41:
 263 000e 0097      		sbiw r24,0
 264 0010 01F0      		breq .L29
 265               	.LSM42:
 266 0012 22E0      		ldi r18,hi8(600)
 267 0014 8835      		cpi r24,lo8(600)
 268 0016 9207      		cpc r25,r18
 269 0018 00F0      		brlo .L30
 270               	.LSM43:
 271 001a A2E0      		ldi r26,hi8(630)
 272 001c 8637      		cpi r24,lo8(630)
 273 001e 9A07      		cpc r25,r26
 274 0020 00F0      		brlo .L31
 275               	.LSM44:
 276 0022 B2E0      		ldi r27,hi8(680)
 277 0024 883A      		cpi r24,lo8(680)
 278 0026 9B07      		cpc r25,r27
 279 0028 00F0      		brlo .L32
 280               	.LSM45:
 281 002a 22E0      		ldi r18,hi8(758)
 282 002c 863F      		cpi r24,lo8(758)
 283 002e 9207      		cpc r25,r18
 284 0030 00F4      		brsh .L33
 285 0032 14E0      		ldi r17,lo8(4)
 286 0034 00C0      		rjmp .L26
 287               	.L29:
 288               	.LSM46:
 289 0036 10E0      		ldi r17,lo8(0)
 290 0038 00C0      		rjmp .L26
 291               	.L30:
 292               	.LSM47:
 293 003a 11E0      		ldi r17,lo8(1)
 294 003c 00C0      		rjmp .L26
 295               	.L31:
 296               	.LSM48:
 297 003e 12E0      		ldi r17,lo8(2)
 298 0040 00C0      		rjmp .L26
 299               	.L32:
 300               	.LSM49:
 301 0042 13E0      		ldi r17,lo8(3)
 302 0044 00C0      		rjmp .L26
 303               	.L33:
 304               	.LSM50:
 305 0046 15E0      		ldi r17,lo8(5)
 306               	.L26:
 307               	.LBE449:
 308               	.LBE448:
 309               	.LSM51:
 310 0048 8091 0000 		lds r24,aMug+27
 311 004c 1817      		cp r17,r24
 312 004e 01F0      		breq .L25
 313               	.LBB450:
 314               	.LSM52:
 315 0050 0FB7      		in r16,__SREG__
 316               	.LVL20:
 317               	.LBB451:
 318               	.LBB452:
 319               	.LSM53:
 320               	/* #APP */
 321               	 ;  50 "/opt/local/lib/gcc/avr/4.5.2/../../../../avr/include/util/atomic.h" 1
 322 0052 F894      		cli
 323               	 ;  0 "" 2
 324               	.LVL21:
 325               	/* #NOAPP */
 326               	.LBE452:
 327               	.LBE451:
 328               	.LSM54:
 329 0054 00D0      		rcall .
 330 0056 00D0      		rcall .
 331 0058 0F92      		push __tmp_reg__
 332 005a EDB7      		in r30,__SP_L__
 333 005c FEB7      		in r31,__SP_H__
 334 005e 3196      		adiw r30,1
 335 0060 8091 0000 		lds r24,aMug+2
 336 0064 9091 0000 		lds r25,aMug+2+1
 337 0068 ADB7      		in r26,__SP_L__
 338 006a BEB7      		in r27,__SP_H__
 339 006c 1296      		adiw r26,1+1
 340 006e 9C93      		st X,r25
 341 0070 8E93      		st -X,r24
 342 0072 1197      		sbiw r26,1
 343 0074 82E0      		ldi r24,lo8(2)
 344 0076 8283      		std Z+2,r24
 345 0078 1383      		std Z+3,r17
 346 007a 1482      		std Z+4,__zero_reg__
 347 007c 0E94 0000 		call OLEDConstructMessage
 348               	.LVL22:
 349 0080 0F90      		pop __tmp_reg__
 350 0082 0F90      		pop __tmp_reg__
 351 0084 0F90      		pop __tmp_reg__
 352 0086 0F90      		pop __tmp_reg__
 353 0088 0F90      		pop __tmp_reg__
 354 008a 8823      		tst r24
 355 008c 01F0      		breq .L28
 356               	.LBB453:
 357               	.LSM55:
 358 008e F090 0000 		lds r15,aMug+12
 359               	.LVL23:
 360 0092 80E0      		ldi r24,lo8(0)
 361 0094 0E94 0000 		call mugSwitchConsoleTo
 362               	.LVL24:
 363               	.LBB454:
 364               	.LBB455:
 365               	.LBB456:
 366               	.LBB457:
 367               	.LSM56:
 368 0098 E0E1      		ldi r30,lo8(10000)
 369 009a F7E2      		ldi r31,hi8(10000)
 370               	/* #APP */
 371               	 ;  105 "/opt/local/lib/gcc/avr/4.5.2/../../../../avr/include/util/delay_basic.h" 1
 372 009c 3197      		1: sbiw r30,1
 373 009e 01F4      		brne 1b
 374               	 ;  0 "" 2
 375               	.LVL25:
 376               	/* #NOAPP */
 377               	.LBE457:
 378               	.LBE456:
 379               	.LBE455:
 380               	.LBE454:
 381               	.LSM57:
 382 00a0 8091 0000 		lds r24,aMug+2
 383 00a4 9091 0000 		lds r25,aMug+2+1
 384 00a8 0E94 0000 		call OLEDSendMessage
 385 00ac 8F2D      		mov r24,r15
 386 00ae 0E94 0000 		call mugSwitchConsoleTo
 387               	.LVL26:
 388               	.L28:
 389               	.LBE453:
 390               	.LBB458:
 391               	.LBB459:
 392               	.LSM58:
 393 00b2 0FBF      		out __SREG__,r16
 394               	.LSM59:
 395               	.LBE459:
 396               	.LBE458:
 397               	.LBE450:
 398               	.LSM60:
 399 00b4 1093 0000 		sts aMug+27,r17
 400               	.LVL27:
 401               	.L25:
 402               	/* epilogue start */
 403               	.LSM61:
 404 00b8 1F91      		pop r17
 405 00ba 0F91      		pop r16
 406 00bc FF90      		pop r15
 407 00be 0895      		ret
 408               	.LFE29:
 410               		.section	.text.mugWakeUpIfNeeded,"ax",@progbits
 412               	mugWakeUpIfNeeded:
 413               	.LFB45:
 414               	.LSM62:
 415 0000 0F93      		push r16
 416 0002 1F93      		push r17
 417               	/* prologue: function */
 418               	/* frame size = 0 */
 419               	/* stack size = 2 */
 420               	.L__stack_usage = 2
 421               	.LSM63:
 422 0004 8091 0000 		lds r24,aMug+10
 423 0008 9091 0000 		lds r25,currentPowerState.2603
 424 000c 8917      		cp r24,r25
 425 000e 01F4      		brne .+2
 426 0010 00C0      		rjmp .L35
 427               	.LSM64:
 428 0012 8130      		cpi r24,lo8(1)
 429 0014 01F4      		brne .L36
 430               	.LBB460:
 431               	.LSM65:
 432 0016 1FB7      		in r17,__SREG__
 433               	.LVL28:
 434               	.LBB461:
 435               	.LBB462:
 436               	.LSM66:
 437               	/* #APP */
 438               	 ;  50 "/opt/local/lib/gcc/avr/4.5.2/../../../../avr/include/util/atomic.h" 1
 439 0018 F894      		cli
 440               	 ;  0 "" 2
 441               	.LVL29:
 442               	/* #NOAPP */
 443               	.LBE462:
 444               	.LBE461:
 445               	.LSM67:
 446 001a 00D0      		rcall .
 447 001c 00D0      		rcall .
 448 001e 0F92      		push __tmp_reg__
 449 0020 EDB7      		in r30,__SP_L__
 450 0022 FEB7      		in r31,__SP_H__
 451 0024 3196      		adiw r30,1
 452 0026 8091 0000 		lds r24,aMug+2
 453 002a 9091 0000 		lds r25,aMug+2+1
 454 002e ADB7      		in r26,__SP_L__
 455 0030 BEB7      		in r27,__SP_H__
 456 0032 1296      		adiw r26,1+1
 457 0034 9C93      		st X,r25
 458 0036 8E93      		st -X,r24
 459 0038 1197      		sbiw r26,1
 460 003a 89E0      		ldi r24,lo8(9)
 461 003c 8283      		std Z+2,r24
 462 003e 80E1      		ldi r24,lo8(16)
 463 0040 90E0      		ldi r25,hi8(16)
 464 0042 9483      		std Z+4,r25
 465 0044 8383      		std Z+3,r24
 466 0046 00C0      		rjmp .L43
 467               	.LVL30:
 468               	.L36:
 469               	.LBE460:
 470               	.LBB463:
 471               	.LSM68:
 472 0048 1FB7      		in r17,__SREG__
 473               	.LVL31:
 474               	.LBB464:
 475               	.LBB465:
 476               	.LSM69:
 477               	/* #APP */
 478               	 ;  50 "/opt/local/lib/gcc/avr/4.5.2/../../../../avr/include/util/atomic.h" 1
 479 004a F894      		cli
 480               	 ;  0 "" 2
 481               	.LVL32:
 482               	/* #NOAPP */
 483               	.LBE465:
 484               	.LBE464:
 485               	.LSM70:
 486 004c 00D0      		rcall .
 487 004e 00D0      		rcall .
 488 0050 0F92      		push __tmp_reg__
 489 0052 EDB7      		in r30,__SP_L__
 490 0054 FEB7      		in r31,__SP_H__
 491 0056 3196      		adiw r30,1
 492 0058 8091 0000 		lds r24,aMug+2
 493 005c 9091 0000 		lds r25,aMug+2+1
 494 0060 ADB7      		in r26,__SP_L__
 495 0062 BEB7      		in r27,__SP_H__
 496 0064 1296      		adiw r26,1+1
 497 0066 9C93      		st X,r25
 498 0068 8E93      		st -X,r24
 499 006a 1197      		sbiw r26,1
 500 006c 89E0      		ldi r24,lo8(9)
 501 006e 8283      		std Z+2,r24
 502 0070 1482      		std Z+4,__zero_reg__
 503 0072 1382      		std Z+3,__zero_reg__
 504               	.LVL33:
 505               	.L43:
 506 0074 0E94 0000 		call OLEDConstructMessage
 507 0078 0F90      		pop __tmp_reg__
 508 007a 0F90      		pop __tmp_reg__
 509 007c 0F90      		pop __tmp_reg__
 510 007e 0F90      		pop __tmp_reg__
 511 0080 0F90      		pop __tmp_reg__
 512 0082 8823      		tst r24
 513 0084 01F0      		breq .L39
 514               	.LBB466:
 515               	.LSM71:
 516 0086 0091 0000 		lds r16,aMug+12
 517               	.LVL34:
 518 008a 80E0      		ldi r24,lo8(0)
 519 008c 0E94 0000 		call mugSwitchConsoleTo
 520               	.LVL35:
 521               	.LBB467:
 522               	.LBB468:
 523               	.LBB469:
 524               	.LBB470:
 525               	.LSM72:
 526 0090 E0E1      		ldi r30,lo8(10000)
 527 0092 F7E2      		ldi r31,hi8(10000)
 528               	/* #APP */
 529               	 ;  105 "/opt/local/lib/gcc/avr/4.5.2/../../../../avr/include/util/delay_basic.h" 1
 530 0094 3197      		1: sbiw r30,1
 531 0096 01F4      		brne 1b
 532               	 ;  0 "" 2
 533               	.LVL36:
 534               	/* #NOAPP */
 535               	.LBE470:
 536               	.LBE469:
 537               	.LBE468:
 538               	.LBE467:
 539               	.LSM73:
 540 0098 8091 0000 		lds r24,aMug+2
 541 009c 9091 0000 		lds r25,aMug+2+1
 542 00a0 0E94 0000 		call OLEDSendMessage
 543 00a4 802F      		mov r24,r16
 544 00a6 0E94 0000 		call mugSwitchConsoleTo
 545               	.LVL37:
 546               	.L39:
 547               	.LBE466:
 548               	.LBB471:
 549               	.LBB472:
 550               	.LSM74:
 551 00aa 1FBF      		out __SREG__,r17
 552               	.LSM75:
 553               	.LBE472:
 554               	.LBE471:
 555               	.LBE463:
 556               	.LSM76:
 557 00ac 8091 0000 		lds r24,aMug+10
 558 00b0 8093 0000 		sts currentPowerState.2603,r24
 559 00b4 00C0      		rjmp .L34
 560               	.L35:
 561               	.LSM77:
 562 00b6 2091 0000 		lds r18,activityTimer
 563 00ba 3091 0000 		lds r19,activityTimer+1
 564 00be 4091 0000 		lds r20,activityTimer+2
 565 00c2 5091 0000 		lds r21,activityTimer+3
 566 00c6 8091 0000 		lds r24,aMug+187
 567 00ca 90E0      		ldi r25,lo8(0)
 568 00cc A0E0      		ldi r26,lo8(0)
 569 00ce B0E0      		ldi r27,hi8(0)
 570 00d0 8217      		cp r24,r18
 571 00d2 9307      		cpc r25,r19
 572 00d4 A407      		cpc r26,r20
 573 00d6 B507      		cpc r27,r21
 574 00d8 00F4      		brsh .L34
 575               	.LSM78:
 576 00da 1092 0000 		sts aMug+10,__zero_reg__
 577               	.L34:
 578               	/* epilogue start */
 579               	.LSM79:
 580 00de 1F91      		pop r17
 581 00e0 0F91      		pop r16
 582 00e2 0895      		ret
 583               	.LFE45:
 585               		.section	.text.mugReadConfig,"ax",@progbits
 587               	mugReadConfig:
 588               	.LFB14:
 589               	.LSM80:
 590               	/* prologue: function */
 591               	/* frame size = 0 */
 592               	/* stack size = 0 */
 593               	.L__stack_usage = 0
 594               	.L45:
 595               	.LSM81:
 596 0000 F999      		sbic 63-0x20,1
 597 0002 00C0      		rjmp .L45
 598               	.LSM82:
 599 0004 80E0      		ldi r24,lo8(aMug+158)
 600 0006 90E0      		ldi r25,hi8(aMug+158)
 601 0008 60E0      		ldi r22,lo8(mugConfigEep)
 602 000a 70E0      		ldi r23,hi8(mugConfigEep)
 603 000c 4EE1      		ldi r20,lo8(30)
 604 000e 50E0      		ldi r21,hi8(30)
 605 0010 0E94 0000 		call __eerd_block_m1284p
 606               	/* epilogue start */
 607               	.LSM83:
 608 0014 0895      		ret
 609               	.LFE14:
 611               		.section	.text.mugReadMessage,"ax",@progbits
 613               	mugReadMessage:
 614               	.LFB39:
 615               	.LSM84:
 616               	/* prologue: function */
 617               	/* frame size = 0 */
 618               	/* stack size = 0 */
 619               	.L__stack_usage = 0
 620               	.LVL38:
 621               	.L48:
 622               	.LSM85:
 623 0000 F999      		sbic 63-0x20,1
 624 0002 00C0      		rjmp .L48
 625               	.LSM86:
 626 0004 E82F      		mov r30,r24
 627 0006 F0E0      		ldi r31,lo8(0)
 628 0008 EE0F      		lsl r30
 629 000a FF1F      		rol r31
 630               	.LVL39:
 631 000c E050      		subi r30,lo8(-(eMugMsgs))
 632 000e F040      		sbci r31,hi8(-(eMugMsgs))
 633 0010 6081      		ld r22,Z
 634 0012 7181      		ldd r23,Z+1
 635 0014 80E0      		ldi r24,lo8(msg.2505)
 636 0016 90E0      		ldi r25,hi8(msg.2505)
 637 0018 40E4      		ldi r20,lo8(64)
 638 001a 50E0      		ldi r21,hi8(64)
 639 001c 0E94 0000 		call __eerd_block_m1284p
 640               	.LSM87:
 641 0020 80E0      		ldi r24,lo8(msg.2505)
 642 0022 90E0      		ldi r25,hi8(msg.2505)
 643               	/* epilogue start */
 644 0024 0895      		ret
 645               	.LFE39:
 647               		.data
 648               	.LC0:
 649 0000 3E20 2573 		.string	"> %s"
 649      00
 650               		.section	.text.mugSelectMessage,"ax",@progbits
 652               	mugSelectMessage:
 653               	.LFB40:
 654               	.LSM88:
 655               	.LVL40:
 656 0000 1F93      		push r17
 657               	/* prologue: function */
 658               	/* frame size = 0 */
 659               	/* stack size = 1 */
 660               	.L__stack_usage = 1
 661 0002 182F      		mov r17,r24
 662               	.LVL41:
 663               	.LSM89:
 664 0004 00C0      		rjmp .L51
 665               	.LVL42:
 666               	.L53:
 667               	.LSM90:
 668 0006 812F      		mov r24,r17
 669 0008 0E94 0000 		call mugReadMessage
 670 000c FC01      		movw r30,r24
 671               	.LVL43:
 672               	.LSM91:
 673 000e 8081      		ld r24,Z
 674               	.LVL44:
 675 0010 8823      		tst r24
 676 0012 01F4      		brne .L52
 677               	.LSM92:
 678 0014 1123      		tst r17
 679 0016 01F0      		breq .L52
 680               	.LSM93:
 681 0018 1F5F      		subi r17,lo8(-(1))
 682               	.LVL45:
 683               	.L51:
 684               	.LSM94:
 685 001a 1431      		cpi r17,lo8(20)
 686 001c 00F0      		brlo .L53
 687               	.LSM95:
 688 001e 10E0      		ldi r17,lo8(0)
 689               	.LVL46:
 690               	.L52:
 691               	.LSM96:
 692 0020 812F      		mov r24,r17
 693 0022 0E94 0000 		call mugReadMessage
 694 0026 2DB7      		in r18,__SP_L__
 695 0028 3EB7      		in r19,__SP_H__
 696 002a 2850      		subi r18,lo8(-(-8))
 697 002c 3040      		sbci r19,hi8(-(-8))
 698 002e 0FB6      		in __tmp_reg__,__SREG__
 699 0030 F894      		cli
 700 0032 3EBF      		out __SP_H__,r19
 701 0034 0FBE      		out __SREG__,__tmp_reg__
 702 0036 2DBF      		out __SP_L__,r18
 703 0038 EDB7      		in r30,__SP_L__
 704 003a FEB7      		in r31,__SP_H__
 705 003c 3196      		adiw r30,1
 706 003e 20E0      		ldi r18,lo8(aMug+30)
 707 0040 30E0      		ldi r19,hi8(aMug+30)
 708 0042 ADB7      		in r26,__SP_L__
 709 0044 BEB7      		in r27,__SP_H__
 710 0046 1296      		adiw r26,1+1
 711 0048 3C93      		st X,r19
 712 004a 2E93      		st -X,r18
 713 004c 1197      		sbiw r26,1
 714 004e 2FE3      		ldi r18,lo8(63)
 715 0050 30E0      		ldi r19,hi8(63)
 716 0052 3383      		std Z+3,r19
 717 0054 2283      		std Z+2,r18
 718 0056 20E0      		ldi r18,lo8(.LC0)
 719 0058 30E0      		ldi r19,hi8(.LC0)
 720 005a 3583      		std Z+5,r19
 721 005c 2483      		std Z+4,r18
 722 005e 9783      		std Z+7,r25
 723 0060 8683      		std Z+6,r24
 724 0062 0E94 0000 		call snprintf
 725               	.LSM97:
 726 0066 1093 0000 		sts aMug+28,r17
 727 006a 2DB7      		in r18,__SP_L__
 728 006c 3EB7      		in r19,__SP_H__
 729 006e 285F      		subi r18,lo8(-(8))
 730 0070 3F4F      		sbci r19,hi8(-(8))
 731 0072 0FB6      		in __tmp_reg__,__SREG__
 732 0074 F894      		cli
 733 0076 3EBF      		out __SP_H__,r19
 734 0078 0FBE      		out __SREG__,__tmp_reg__
 735 007a 2DBF      		out __SP_L__,r18
 736               	/* epilogue start */
 737               	.LSM98:
 738 007c 1F91      		pop r17
 739               	.LVL47:
 740 007e 0895      		ret
 741               	.LFE40:
 743               		.data
 744               	.LC1:
 745 0005 5377 6974 		.string	"Switching to\nconsole"
 745      6368 696E 
 745      6720 746F 
 745      0A63 6F6E 
 745      736F 6C65 
 746               	.LC2:
 747 001a 436F 6E73 		.string	"Console Cancelled"
 747      6F6C 6520 
 747      4361 6E63 
 747      656C 6C65 
 747      6400 
 748               		.section	.text.switchToConsole,"ax",@progbits
 750               	switchToConsole:
 751               	.LFB36:
 752               	.LSM99:
 753               	.LVL48:
 754 0000 0F93      		push r16
 755 0002 1F93      		push r17
 756 0004 CF93      		push r28
 757 0006 DF93      		push r29
 758               	/* prologue: function */
 759               	/* frame size = 0 */
 760               	/* stack size = 4 */
 761               	.L__stack_usage = 4
 762 0008 EC01      		movw r28,r24
 763               	.LSM100:
 764 000a 0097      		sbiw r24,0
 765 000c 01F0      		breq .+2
 766 000e 00C0      		rjmp .L55
 767               	.LSM101:
 768 0010 1092 0000 		sts elapsed.2465,__zero_reg__
 769 0014 1092 0000 		sts elapsed.2465+1,__zero_reg__
 770 0018 1092 0000 		sts elapsed.2465+2,__zero_reg__
 771 001c 1092 0000 		sts elapsed.2465+3,__zero_reg__
 772               	.LBB473:
 773               	.LSM102:
 774 0020 1FB7      		in r17,__SREG__
 775               	.LVL49:
 776               	.LBB474:
 777               	.LBB475:
 778               	.LSM103:
 779               	/* #APP */
 780               	 ;  50 "/opt/local/lib/gcc/avr/4.5.2/../../../../avr/include/util/atomic.h" 1
 781 0022 F894      		cli
 782               	 ;  0 "" 2
 783               	.LVL50:
 784               	/* #NOAPP */
 785               	.LBE475:
 786               	.LBE474:
 787               	.LBB476:
 788               	.LSM104:
 789 0024 0091 0000 		lds r16,aMug+12
 790               	.LVL51:
 791 0028 80E0      		ldi r24,lo8(0)
 792               	.LVL52:
 793 002a 0E94 0000 		call mugSwitchConsoleTo
 794               	.LVL53:
 795               	.LBB477:
 796               	.LBB478:
 797               	.LBB479:
 798               	.LBB480:
 799               	.LSM105:
 800 002e E0E1      		ldi r30,lo8(10000)
 801 0030 F7E2      		ldi r31,hi8(10000)
 802               	/* #APP */
 803               	 ;  105 "/opt/local/lib/gcc/avr/4.5.2/../../../../avr/include/util/delay_basic.h" 1
 804 0032 3197      		1: sbiw r30,1
 805 0034 01F4      		brne 1b
 806               	 ;  0 "" 2
 807               	.LVL54:
 808               	/* #NOAPP */
 809               	.LBE480:
 810               	.LBE479:
 811               	.LBE478:
 812               	.LBE477:
 813               	.LSM106:
 814 0036 00D0      		rcall .
 815 0038 00D0      		rcall .
 816 003a 0F92      		push __tmp_reg__
 817 003c EDB7      		in r30,__SP_L__
 818 003e FEB7      		in r31,__SP_H__
 819 0040 3196      		adiw r30,1
 820 0042 2091 0000 		lds r18,aMug+2
 821 0046 3091 0000 		lds r19,aMug+2+1
 822 004a ADB7      		in r26,__SP_L__
 823 004c BEB7      		in r27,__SP_H__
 824 004e 1296      		adiw r26,1+1
 825 0050 3C93      		st X,r19
 826 0052 2E93      		st -X,r18
 827 0054 1197      		sbiw r26,1
 828 0056 88E0      		ldi r24,lo8(8)
 829 0058 8283      		std Z+2,r24
 830 005a 20E0      		ldi r18,lo8(.LC1)
 831 005c 30E0      		ldi r19,hi8(.LC1)
 832 005e 3483      		std Z+4,r19
 833 0060 2383      		std Z+3,r18
 834 0062 0E94 0000 		call OLEDConstructMessage
 835 0066 0F90      		pop __tmp_reg__
 836 0068 0F90      		pop __tmp_reg__
 837 006a 0F90      		pop __tmp_reg__
 838 006c 0F90      		pop __tmp_reg__
 839 006e 0F90      		pop __tmp_reg__
 840 0070 8823      		tst r24
 841 0072 01F0      		breq .L56
 842               	.LSM107:
 843 0074 8091 0000 		lds r24,aMug+2
 844 0078 9091 0000 		lds r25,aMug+2+1
 845 007c 0E94 0000 		call OLEDSendMessage
 846               	.L56:
 847               	.LSM108:
 848 0080 802F      		mov r24,r16
 849 0082 0E94 0000 		call mugSwitchConsoleTo
 850               	.LVL55:
 851               	.LBE476:
 852               	.LBB481:
 853               	.LBB482:
 854               	.LSM109:
 855 0086 1FBF      		out __SREG__,r17
 856               	.LSM110:
 857               	.LBE482:
 858               	.LBE481:
 859               	.LBE473:
 860               	.LSM111:
 861 0088 86E0      		ldi r24,lo8(6)
 862 008a 00C0      		rjmp .L57
 863               	.LVL56:
 864               	.L55:
 865               	.LSM112:
 866 008c 8091 0000 		lds r24,elapsed.2465
 867 0090 9091 0000 		lds r25,elapsed.2465+1
 868 0094 A091 0000 		lds r26,elapsed.2465+2
 869 0098 B091 0000 		lds r27,elapsed.2465+3
 870 009c 0097      		sbiw r24,0
 871 009e A105      		cpc r26,__zero_reg__
 872 00a0 B105      		cpc r27,__zero_reg__
 873 00a2 01F4      		brne .L58
 874               	.LSM113:
 875 00a4 0E94 0000 		call systemGetElapsedTime
 876 00a8 6093 0000 		sts elapsed.2465,r22
 877 00ac 7093 0000 		sts elapsed.2465+1,r23
 878 00b0 8093 0000 		sts elapsed.2465+2,r24
 879 00b4 9093 0000 		sts elapsed.2465+3,r25
 880 00b8 00C0      		rjmp .L59
 881               	.L58:
 882               	.LSM114:
 883 00ba 0E94 0000 		call systemGetElapsedTime
 884 00be 2091 0000 		lds r18,elapsed.2465
 885 00c2 3091 0000 		lds r19,elapsed.2465+1
 886 00c6 4091 0000 		lds r20,elapsed.2465+2
 887 00ca 5091 0000 		lds r21,elapsed.2465+3
 888 00ce 621B      		sub r22,r18
 889 00d0 730B      		sbc r23,r19
 890 00d2 840B      		sbc r24,r20
 891 00d4 950B      		sbc r25,r21
 892 00d6 9E01      		movw r18,r28
 893 00d8 40E0      		ldi r20,lo8(0)
 894 00da 50E0      		ldi r21,hi8(0)
 895 00dc 6217      		cp r22,r18
 896 00de 7307      		cpc r23,r19
 897 00e0 8407      		cpc r24,r20
 898 00e2 9507      		cpc r25,r21
 899 00e4 00F4      		brsh .+2
 900 00e6 00C0      		rjmp .L59
 901               	.LSM115:
 902 00e8 1092 0000 		sts elapsed.2465,__zero_reg__
 903 00ec 1092 0000 		sts elapsed.2465+1,__zero_reg__
 904 00f0 1092 0000 		sts elapsed.2465+2,__zero_reg__
 905 00f4 1092 0000 		sts elapsed.2465+3,__zero_reg__
 906               	.LBB483:
 907               	.LSM116:
 908 00f8 1FB7      		in r17,__SREG__
 909               	.LVL57:
 910               	.LBB484:
 911               	.LBB485:
 912               	.LSM117:
 913               	/* #APP */
 914               	 ;  50 "/opt/local/lib/gcc/avr/4.5.2/../../../../avr/include/util/atomic.h" 1
 915 00fa F894      		cli
 916               	 ;  0 "" 2
 917               	.LVL58:
 918               	/* #NOAPP */
 919               	.LBE485:
 920               	.LBE484:
 921               	.LBB486:
 922               	.LSM118:
 923 00fc 0091 0000 		lds r16,aMug+12
 924               	.LVL59:
 925 0100 80E0      		ldi r24,lo8(0)
 926 0102 0E94 0000 		call mugSwitchConsoleTo
 927               	.LVL60:
 928               	.LBB487:
 929               	.LBB488:
 930               	.LBB489:
 931               	.LBB490:
 932               	.LSM119:
 933 0106 E0E1      		ldi r30,lo8(10000)
 934 0108 F7E2      		ldi r31,hi8(10000)
 935               	/* #APP */
 936               	 ;  105 "/opt/local/lib/gcc/avr/4.5.2/../../../../avr/include/util/delay_basic.h" 1
 937 010a 3197      		1: sbiw r30,1
 938 010c 01F4      		brne 1b
 939               	 ;  0 "" 2
 940               	.LVL61:
 941               	/* #NOAPP */
 942               	.LBE490:
 943               	.LBE489:
 944               	.LBE488:
 945               	.LBE487:
 946               	.LSM120:
 947 010e 00D0      		rcall .
 948 0110 00D0      		rcall .
 949 0112 0F92      		push __tmp_reg__
 950 0114 EDB7      		in r30,__SP_L__
 951 0116 FEB7      		in r31,__SP_H__
 952 0118 3196      		adiw r30,1
 953 011a 2091 0000 		lds r18,aMug+2
 954 011e 3091 0000 		lds r19,aMug+2+1
 955 0122 ADB7      		in r26,__SP_L__
 956 0124 BEB7      		in r27,__SP_H__
 957 0126 1296      		adiw r26,1+1
 958 0128 3C93      		st X,r19
 959 012a 2E93      		st -X,r18
 960 012c 1197      		sbiw r26,1
 961 012e 88E0      		ldi r24,lo8(8)
 962 0130 8283      		std Z+2,r24
 963 0132 20E0      		ldi r18,lo8(.LC2)
 964 0134 30E0      		ldi r19,hi8(.LC2)
 965 0136 3483      		std Z+4,r19
 966 0138 2383      		std Z+3,r18
 967 013a 0E94 0000 		call OLEDConstructMessage
 968 013e 0F90      		pop __tmp_reg__
 969 0140 0F90      		pop __tmp_reg__
 970 0142 0F90      		pop __tmp_reg__
 971 0144 0F90      		pop __tmp_reg__
 972 0146 0F90      		pop __tmp_reg__
 973 0148 8823      		tst r24
 974 014a 01F0      		breq .L60
 975               	.LSM121:
 976 014c 8091 0000 		lds r24,aMug+2
 977 0150 9091 0000 		lds r25,aMug+2+1
 978 0154 0E94 0000 		call OLEDSendMessage
 979               	.L60:
 980               	.LSM122:
 981 0158 802F      		mov r24,r16
 982 015a 0E94 0000 		call mugSwitchConsoleTo
 983               	.LVL62:
 984               	.LBE486:
 985               	.LBB491:
 986               	.LBB492:
 987               	.LSM123:
 988 015e 1FBF      		out __SREG__,r17
 989               	.LSM124:
 990               	.LBE492:
 991               	.LBE491:
 992               	.LBE483:
 993               	.LSM125:
 994 0160 85E0      		ldi r24,lo8(5)
 995 0162 00C0      		rjmp .L57
 996               	.LVL63:
 997               	.L59:
 998               	.LSM126:
 999 0164 8091 0000 		lds r24,aMug+9
 1000               	.L57:
 1001               	/* epilogue start */
 1002               	.LSM127:
 1003 0168 DF91      		pop r29
 1004 016a CF91      		pop r28
 1005               	.LVL64:
 1006 016c 1F91      		pop r17
 1007 016e 0F91      		pop r16
 1008 0170 0895      		ret
 1009               	.LFE36:
 1011               		.data
 1012               	.LC3:
 1013 002c 476F 696E 		.string	"Going down"
 1013      6720 646F 
 1013      776E 00
 1014               		.section	.text.mugShutdown,"ax",@progbits
 1016               	mugShutdown:
 1017               	.LFB16:
 1018               	.LSM128:
 1019 0000 0F93      		push r16
 1020 0002 1F93      		push r17
 1021               	/* prologue: function */
 1022               	/* frame size = 0 */
 1023               	/* stack size = 2 */
 1024               	.L__stack_usage = 2
 1025               	.LBB493:
 1026               	.LSM129:
 1027 0004 1FB7      		in r17,__SREG__
 1028               	.LVL65:
 1029               	.LBB494:
 1030               	.LBB495:
 1031               	.LSM130:
 1032               	/* #APP */
 1033               	 ;  50 "/opt/local/lib/gcc/avr/4.5.2/../../../../avr/include/util/atomic.h" 1
 1034 0006 F894      		cli
 1035               	 ;  0 "" 2
 1036               	.LVL66:
 1037               	/* #NOAPP */
 1038               	.LBE495:
 1039               	.LBE494:
 1040               	.LBB496:
 1041               	.LSM131:
 1042 0008 0091 0000 		lds r16,aMug+12
 1043               	.LVL67:
 1044 000c 80E0      		ldi r24,lo8(0)
 1045 000e 0E94 0000 		call mugSwitchConsoleTo
 1046               	.LVL68:
 1047               	.LBB497:
 1048               	.LBB498:
 1049               	.LBB499:
 1050               	.LBB500:
 1051               	.LSM132:
 1052 0012 E0E1      		ldi r30,lo8(10000)
 1053 0014 F7E2      		ldi r31,hi8(10000)
 1054               	/* #APP */
 1055               	 ;  105 "/opt/local/lib/gcc/avr/4.5.2/../../../../avr/include/util/delay_basic.h" 1
 1056 0016 3197      		1: sbiw r30,1
 1057 0018 01F4      		brne 1b
 1058               	 ;  0 "" 2
 1059               	.LVL69:
 1060               	/* #NOAPP */
 1061               	.LBE500:
 1062               	.LBE499:
 1063               	.LBE498:
 1064               	.LBE497:
 1065               	.LSM133:
 1066 001a 00D0      		rcall .
 1067 001c 00D0      		rcall .
 1068 001e 0F92      		push __tmp_reg__
 1069 0020 EDB7      		in r30,__SP_L__
 1070 0022 FEB7      		in r31,__SP_H__
 1071 0024 3196      		adiw r30,1
 1072 0026 2091 0000 		lds r18,aMug+2
 1073 002a 3091 0000 		lds r19,aMug+2+1
 1074 002e ADB7      		in r26,__SP_L__
 1075 0030 BEB7      		in r27,__SP_H__
 1076 0032 1296      		adiw r26,1+1
 1077 0034 3C93      		st X,r19
 1078 0036 2E93      		st -X,r18
 1079 0038 1197      		sbiw r26,1
 1080 003a 88E0      		ldi r24,lo8(8)
 1081 003c 8283      		std Z+2,r24
 1082 003e 20E0      		ldi r18,lo8(.LC3)
 1083 0040 30E0      		ldi r19,hi8(.LC3)
 1084 0042 3483      		std Z+4,r19
 1085 0044 2383      		std Z+3,r18
 1086 0046 0E94 0000 		call OLEDConstructMessage
 1087 004a 0F90      		pop __tmp_reg__
 1088 004c 0F90      		pop __tmp_reg__
 1089 004e 0F90      		pop __tmp_reg__
 1090 0050 0F90      		pop __tmp_reg__
 1091 0052 0F90      		pop __tmp_reg__
 1092 0054 8823      		tst r24
 1093 0056 01F0      		breq .L62
 1094               	.LSM134:
 1095 0058 8091 0000 		lds r24,aMug+2
 1096 005c 9091 0000 		lds r25,aMug+2+1
 1097 0060 0E94 0000 		call OLEDSendMessage
 1098               	.L62:
 1099               	.LSM135:
 1100 0064 802F      		mov r24,r16
 1101 0066 0E94 0000 		call mugSwitchConsoleTo
 1102               	.LVL70:
 1103               	.LBE496:
 1104               	.LBB501:
 1105               	.LBB502:
 1106               	.LSM136:
 1107 006a 1FBF      		out __SREG__,r17
 1108               	.LSM137:
 1109               	.LBE502:
 1110               	.LBE501:
 1111               	.LBE493:
 1112               	.LSM138:
 1113 006c 8091 0000 		lds r24,aMug
 1114 0070 9091 0000 		lds r25,aMug+1
 1115 0074 0E94 0000 		call XBeeRelease
 1116               	.LSM139:
 1117 0078 80E0      		ldi r24,lo8(0)
 1118 007a 0E94 0000 		call mugSwitchConsoleTo
 1119               	.LBB503:
 1120               	.LSM140:
 1121 007e 1FB7      		in r17,__SREG__
 1122               	.LVL71:
 1123               	.LBB504:
 1124               	.LBB505:
 1125               	.LSM141:
 1126               	/* #APP */
 1127               	 ;  50 "/opt/local/lib/gcc/avr/4.5.2/../../../../avr/include/util/atomic.h" 1
 1128 0080 F894      		cli
 1129               	 ;  0 "" 2
 1130               	.LVL72:
 1131               	/* #NOAPP */
 1132               	.LBE505:
 1133               	.LBE504:
 1134               	.LSM142:
 1135 0082 00D0      		rcall .
 1136 0084 00D0      		rcall .
 1137 0086 0F92      		push __tmp_reg__
 1138 0088 EDB7      		in r30,__SP_L__
 1139 008a FEB7      		in r31,__SP_H__
 1140 008c 3196      		adiw r30,1
 1141 008e 8091 0000 		lds r24,aMug+2
 1142 0092 9091 0000 		lds r25,aMug+2+1
 1143 0096 ADB7      		in r26,__SP_L__
 1144 0098 BEB7      		in r27,__SP_H__
 1145 009a 1296      		adiw r26,1+1
 1146 009c 9C93      		st X,r25
 1147 009e 8E93      		st -X,r24
 1148 00a0 1197      		sbiw r26,1
 1149 00a2 89E0      		ldi r24,lo8(9)
 1150 00a4 8283      		std Z+2,r24
 1151 00a6 1482      		std Z+4,__zero_reg__
 1152 00a8 1382      		std Z+3,__zero_reg__
 1153 00aa 0E94 0000 		call OLEDConstructMessage
 1154 00ae 0F90      		pop __tmp_reg__
 1155 00b0 0F90      		pop __tmp_reg__
 1156 00b2 0F90      		pop __tmp_reg__
 1157 00b4 0F90      		pop __tmp_reg__
 1158 00b6 0F90      		pop __tmp_reg__
 1159 00b8 8823      		tst r24
 1160 00ba 01F0      		breq .L63
 1161               	.LBB506:
 1162               	.LSM143:
 1163 00bc 0091 0000 		lds r16,aMug+12
 1164               	.LVL73:
 1165 00c0 80E0      		ldi r24,lo8(0)
 1166 00c2 0E94 0000 		call mugSwitchConsoleTo
 1167               	.LVL74:
 1168               	.LBB507:
 1169               	.LBB508:
 1170               	.LBB509:
 1171               	.LBB510:
 1172               	.LSM144:
 1173 00c6 E0E1      		ldi r30,lo8(10000)
 1174 00c8 F7E2      		ldi r31,hi8(10000)
 1175               	/* #APP */
 1176               	 ;  105 "/opt/local/lib/gcc/avr/4.5.2/../../../../avr/include/util/delay_basic.h" 1
 1177 00ca 3197      		1: sbiw r30,1
 1178 00cc 01F4      		brne 1b
 1179               	 ;  0 "" 2
 1180               	.LVL75:
 1181               	/* #NOAPP */
 1182               	.LBE510:
 1183               	.LBE509:
 1184               	.LBE508:
 1185               	.LBE507:
 1186               	.LSM145:
 1187 00ce 8091 0000 		lds r24,aMug+2
 1188 00d2 9091 0000 		lds r25,aMug+2+1
 1189 00d6 0E94 0000 		call OLEDSendMessage
 1190 00da 802F      		mov r24,r16
 1191 00dc 0E94 0000 		call mugSwitchConsoleTo
 1192               	.LVL76:
 1193               	.L63:
 1194               	.LBE506:
 1195               	.LBB511:
 1196               	.LBB512:
 1197               	.LSM146:
 1198 00e0 1FBF      		out __SREG__,r17
 1199               	.LSM147:
 1200               	.LBE512:
 1201               	.LBE511:
 1202               	.LBE503:
 1203               	.LSM148:
 1204 00e2 8091 0000 		lds r24,aMug+2
 1205 00e6 9091 0000 		lds r25,aMug+2+1
 1206 00ea 0E94 0000 		call OLEDDisable
 1207               	.LSM149:
 1208 00ee 8091 0000 		lds r24,aMug+2
 1209 00f2 9091 0000 		lds r25,aMug+2+1
 1210 00f6 0E94 0000 		call OLEDRelease
 1211               	.LSM150:
 1212 00fa 84E0      		ldi r24,lo8(4)
 1213 00fc 0E94 0000 		call systemMainPower
 1214               	/* epilogue start */
 1215               	.LSM151:
 1216 0100 1F91      		pop r17
 1217               	.LVL77:
 1218 0102 0F91      		pop r16
 1219 0104 0895      		ret
 1220               	.LFE16:
 1222               		.data
 1223               	.LC4:
 1224 0037 546F 2073 		.string	"To switch to\nconsole press\nbutton within\n5 seconds"
 1224      7769 7463 
 1224      6820 746F 
 1224      0A63 6F6E 
 1224      736F 6C65 
 1225               		.section	.text.updateBatteryStatus,"ax",@progbits
 1227               	updateBatteryStatus:
 1228               	.LFB32:
 1229               	.LSM152:
 1230 0000 FF92      		push r15
 1231 0002 0F93      		push r16
 1232 0004 1F93      		push r17
 1233               	/* prologue: function */
 1234               	/* frame size = 0 */
 1235               	/* stack size = 3 */
 1236               	.L__stack_usage = 3
 1237               	.LBB513:
 1238               	.LBB514:
 1239               	.LSM153:
 1240 0006 0E94 0000 		call systemUsbHostConnected
 1241 000a 182F      		mov r17,r24
 1242               	.LVL78:
 1243               	.LSM154:
 1244 000c 8091 0000 		lds r24,aMug+13
 1245               	.LVL79:
 1246 0010 8117      		cp r24,r17
 1247 0012 01F4      		brne .+2
 1248 0014 00C0      		rjmp .L65
 1249               	.LSM155:
 1250 0016 1123      		tst r17
 1251 0018 01F4      		brne .+2
 1252 001a 00C0      		rjmp .L66
 1253               	.LSM156:
 1254 001c 1092 0000 		sts aMug+25+1,__zero_reg__
 1255 0020 1092 0000 		sts aMug+25,__zero_reg__
 1256               	.LSM157:
 1257 0024 8091 0000 		lds r24,aMug+9
 1258 0028 8823      		tst r24
 1259 002a 01F4      		brne .+2
 1260 002c 00C0      		rjmp .L67
 1261               	.LBB515:
 1262               	.LSM158:
 1263 002e 0FB7      		in r16,__SREG__
 1264               	.LVL80:
 1265               	.LBB516:
 1266               	.LBB517:
 1267               	.LSM159:
 1268               	/* #APP */
 1269               	 ;  50 "/opt/local/lib/gcc/avr/4.5.2/../../../../avr/include/util/atomic.h" 1
 1270 0030 F894      		cli
 1271               	 ;  0 "" 2
 1272               	.LVL81:
 1273               	/* #NOAPP */
 1274               	.LBE517:
 1275               	.LBE516:
 1276               	.LBB518:
 1277               	.LSM160:
 1278 0032 F090 0000 		lds r15,aMug+12
 1279               	.LVL82:
 1280 0036 80E0      		ldi r24,lo8(0)
 1281 0038 0E94 0000 		call mugSwitchConsoleTo
 1282               	.LVL83:
 1283               	.LBB519:
 1284               	.LBB520:
 1285               	.LBB521:
 1286               	.LBB522:
 1287               	.LSM161:
 1288 003c E0E1      		ldi r30,lo8(10000)
 1289 003e F7E2      		ldi r31,hi8(10000)
 1290               	/* #APP */
 1291               	 ;  105 "/opt/local/lib/gcc/avr/4.5.2/../../../../avr/include/util/delay_basic.h" 1
 1292 0040 3197      		1: sbiw r30,1
 1293 0042 01F4      		brne 1b
 1294               	 ;  0 "" 2
 1295               	.LVL84:
 1296               	/* #NOAPP */
 1297               	.LBE522:
 1298               	.LBE521:
 1299               	.LBE520:
 1300               	.LBE519:
 1301               	.LSM162:
 1302 0044 00D0      		rcall .
 1303 0046 00D0      		rcall .
 1304 0048 0F92      		push __tmp_reg__
 1305 004a EDB7      		in r30,__SP_L__
 1306 004c FEB7      		in r31,__SP_H__
 1307 004e 3196      		adiw r30,1
 1308 0050 2091 0000 		lds r18,aMug+2
 1309 0054 3091 0000 		lds r19,aMug+2+1
 1310 0058 ADB7      		in r26,__SP_L__
 1311 005a BEB7      		in r27,__SP_H__
 1312 005c 1296      		adiw r26,1+1
 1313 005e 3C93      		st X,r19
 1314 0060 2E93      		st -X,r18
 1315 0062 1197      		sbiw r26,1
 1316 0064 88E0      		ldi r24,lo8(8)
 1317 0066 8283      		std Z+2,r24
 1318 0068 20E0      		ldi r18,lo8(.LC4)
 1319 006a 30E0      		ldi r19,hi8(.LC4)
 1320 006c 3483      		std Z+4,r19
 1321 006e 2383      		std Z+3,r18
 1322 0070 0E94 0000 		call OLEDConstructMessage
 1323 0074 0F90      		pop __tmp_reg__
 1324 0076 0F90      		pop __tmp_reg__
 1325 0078 0F90      		pop __tmp_reg__
 1326 007a 0F90      		pop __tmp_reg__
 1327 007c 0F90      		pop __tmp_reg__
 1328 007e 8823      		tst r24
 1329 0080 01F0      		breq .L68
 1330 0082 8091 0000 		lds r24,aMug+2
 1331 0086 9091 0000 		lds r25,aMug+2+1
 1332 008a 0E94 0000 		call OLEDSendMessage
 1333               	.L68:
 1334 008e 8F2D      		mov r24,r15
 1335 0090 0E94 0000 		call mugSwitchConsoleTo
 1336               	.LVL85:
 1337               	.LBE518:
 1338               	.LBB523:
 1339               	.LBB524:
 1340               	.LSM163:
 1341 0094 0FBF      		out __SREG__,r16
 1342               	.LSM164:
 1343               	.LBE524:
 1344               	.LBE523:
 1345               	.LBE515:
 1346               	.LSM165:
 1347 0096 84E0      		ldi r24,lo8(4)
 1348 0098 00C0      		rjmp .L70
 1349               	.LVL86:
 1350               	.L66:
 1351               	.LSM166:
 1352 009a 8091 0000 		lds r24,aMug+9
 1353 009e 8823      		tst r24
 1354 00a0 01F0      		breq .L67
 1355               	.LSM167:
 1356 00a2 85E0      		ldi r24,lo8(5)
 1357               	.L70:
 1358 00a4 0E94 0000 		call mugSetCurrentState
 1359               	.L67:
 1360               	.LSM168:
 1361 00a8 1093 0000 		sts aMug+13,r17
 1362               	.LVL87:
 1363               	.LBE514:
 1364               	.LBE513:
 1365               	.LSM169:
 1366 00ac 0E94 0000 		call mugCheckBatteryLevel
 1367 00b0 00C0      		rjmp .L71
 1368               	.LVL88:
 1369               	.L65:
 1370               	.LSM170:
 1371 00b2 0E94 0000 		call mugCheckBatteryLevel
 1372 00b6 8823      		tst r24
 1373 00b8 01F0      		breq .L64
 1374               	.LVL89:
 1375               	.L71:
 1376               	.LSM171:
 1377 00ba 0E94 0000 		call mugUpdateBatteryIcon
 1378               	.L64:
 1379               	/* epilogue start */
 1380               	.LSM172:
 1381 00be 1F91      		pop r17
 1382               	.LVL90:
 1383 00c0 0F91      		pop r16
 1384 00c2 FF90      		pop r15
 1385 00c4 0895      		ret
 1386               	.LFE32:
 1388               		.section	.text.skip_whitespace,"ax",@progbits
 1390               	skip_whitespace:
 1391               	.LFB47:
 1392               	.LSM173:
 1393               	.LVL91:
 1394 0000 EF92      		push r14
 1395 0002 FF92      		push r15
 1396 0004 0F93      		push r16
 1397 0006 1F93      		push r17
 1398 0008 CF93      		push r28
 1399 000a DF93      		push r29
 1400               	/* prologue: function */
 1401               	/* frame size = 0 */
 1402               	/* stack size = 6 */
 1403               	.L__stack_usage = 6
 1404               	.LVL92:
 1405               	.LSM174:
 1406 000c E82E      		mov r14,r24
 1407 000e E701      		movw r28,r14
 1408 0010 7E01      		movw r14,r28
 1409 0012 F92E      		mov r15,r25
 1410 0014 E701      		movw r28,r14
 1411               	.LVL93:
 1412               	.L73:
 1413               	.LSM175:
 1414 0016 7E01      		movw r14,r28
 1415               	.LVL94:
 1416 0018 8991      		ld r24,Y+
 1417               	.LVL95:
 1418 001a 90E0      		ldi r25,lo8(0)
 1419 001c 0E94 0000 		call isspace
 1420 0020 0097      		sbiw r24,0
 1421 0022 01F4      		brne .L73
 1422               	.LSM176:
 1423 0024 C701      		movw r24,r14
 1424               	/* epilogue start */
 1425 0026 DF91      		pop r29
 1426 0028 CF91      		pop r28
 1427 002a 1F91      		pop r17
 1428 002c 0F91      		pop r16
 1429 002e FF90      		pop r15
 1430 0030 EF90      		pop r14
 1431 0032 0895      		ret
 1432               	.LFE47:
 1434               		.section	.text.mugWriteConfig,"ax",@progbits
 1436               	mugWriteConfig:
 1437               	.LFB15:
 1438               	.LSM177:
 1439               	/* prologue: function */
 1440               	/* frame size = 0 */
 1441               	/* stack size = 0 */
 1442               	.L__stack_usage = 0
 1443               	.L76:
 1444               	.LSM178:
 1445 0000 F999      		sbic 63-0x20,1
 1446 0002 00C0      		rjmp .L76
 1447               	.LSM179:
 1448 0004 80E0      		ldi r24,lo8(aMug+158)
 1449 0006 90E0      		ldi r25,hi8(aMug+158)
 1450 0008 60E0      		ldi r22,lo8(mugConfigEep)
 1451 000a 70E0      		ldi r23,hi8(mugConfigEep)
 1452 000c 4EE1      		ldi r20,lo8(30)
 1453 000e 50E0      		ldi r21,hi8(30)
 1454 0010 0E94 0000 		call __eewr_block_m1284p
 1455               	/* epilogue start */
 1456               	.LSM180:
 1457 0014 0895      		ret
 1458               	.LFE15:
 1460               		.data
 1461               	.LC5:
 1462 006a 5368 7574 		.string	"Shutdown canceled"
 1462      646F 776E 
 1462      2063 616E 
 1462      6365 6C65 
 1462      6400 
 1463               	.LC6:
 1464 007c 0A0D 00   		.string	"\n\r"
 1465               	.LC7:
 1466 007f 5368 7574 		.string	"Shutdown in %d\nseconds"
 1466      646F 776E 
 1466      2069 6E20 
 1466      2564 0A73 
 1466      6563 6F6E 
 1467               	.LC8:
 1468 0096 5072 6573 		.string	"Press button to\n cancel"
 1468      7320 6275 
 1468      7474 6F6E 
 1468      2074 6F0A 
 1468      2063 616E 
 1469               		.section	.text.mugPowerDown,"ax",@progbits
 1471               	mugPowerDown:
 1472               	.LFB37:
 1473               	.LSM181:
 1474               	.LVL96:
 1475 0000 EF92      		push r14
 1476 0002 FF92      		push r15
 1477 0004 0F93      		push r16
 1478 0006 1F93      		push r17
 1479 0008 DF93      		push r29
 1480 000a CF93      		push r28
 1481 000c CDB7      		in r28,__SP_L__
 1482 000e DEB7      		in r29,__SP_H__
 1483 0010 A097      		sbiw r28,32
 1484 0012 0FB6      		in __tmp_reg__,__SREG__
 1485 0014 F894      		cli
 1486 0016 DEBF      		out __SP_H__,r29
 1487 0018 0FBE      		out __SREG__,__tmp_reg__
 1488 001a CDBF      		out __SP_L__,r28
 1489               	/* prologue: function */
 1490               	/* frame size = 32 */
 1491               	/* stack size = 38 */
 1492               	.L__stack_usage = 38
 1493 001c 8C01      		movw r16,r24
 1494               	.LSM182:
 1495 001e 0097      		sbiw r24,0
 1496 0020 01F0      		breq .+2
 1497 0022 00C0      		rjmp .L79
 1498               	.LVL97:
 1499               	.LBB548:
 1500               	.LBB549:
 1501               	.LSM183:
 1502 0024 8091 0000 		lds r24,aMug+12
 1503 0028 8130      		cpi r24,lo8(1)
 1504 002a 01F4      		brne .L88
 1505               	.LSM184:
 1506 002c 8091 0000 		lds r24,aMug+4
 1507 0030 9091 0000 		lds r25,aMug+4+1
 1508 0034 60E0      		ldi r22,lo8(.LC5)
 1509 0036 70E0      		ldi r23,hi8(.LC5)
 1510 0038 0E94 0000 		call usart_send_string
 1511               	.LSM185:
 1512 003c 8091 0000 		lds r24,aMug+4
 1513 0040 9091 0000 		lds r25,aMug+4+1
 1514 0044 60E0      		ldi r22,lo8(.LC6)
 1515 0046 70E0      		ldi r23,hi8(.LC6)
 1516 0048 42E0      		ldi r20,lo8(2)
 1517 004a 50E0      		ldi r21,hi8(2)
 1518 004c 0E94 0000 		call usart_send_bytes
 1519 0050 00C0      		rjmp .L82
 1520               	.L88:
 1521               	.LSM186:
 1522 0052 00D0      		rcall .
 1523 0054 00D0      		rcall .
 1524 0056 0F92      		push __tmp_reg__
 1525 0058 EDB7      		in r30,__SP_L__
 1526 005a FEB7      		in r31,__SP_H__
 1527 005c 3196      		adiw r30,1
 1528 005e 8091 0000 		lds r24,aMug+2
 1529 0062 9091 0000 		lds r25,aMug+2+1
 1530 0066 ADB7      		in r26,__SP_L__
 1531 0068 BEB7      		in r27,__SP_H__
 1532 006a 1296      		adiw r26,1+1
 1533 006c 9C93      		st X,r25
 1534 006e 8E93      		st -X,r24
 1535 0070 1197      		sbiw r26,1
 1536 0072 86E0      		ldi r24,lo8(6)
 1537 0074 8283      		std Z+2,r24
 1538 0076 80E0      		ldi r24,lo8(.LC5)
 1539 0078 90E0      		ldi r25,hi8(.LC5)
 1540 007a 9483      		std Z+4,r25
 1541 007c 8383      		std Z+3,r24
 1542 007e 0E94 0000 		call OLEDConstructMessage
 1543 0082 0F90      		pop __tmp_reg__
 1544 0084 0F90      		pop __tmp_reg__
 1545 0086 0F90      		pop __tmp_reg__
 1546 0088 0F90      		pop __tmp_reg__
 1547 008a 0F90      		pop __tmp_reg__
 1548 008c 8823      		tst r24
 1549 008e 01F0      		breq .L83
 1550 0090 8091 0000 		lds r24,aMug+2
 1551 0094 9091 0000 		lds r25,aMug+2+1
 1552 0098 0E94 0000 		call OLEDSendMessage
 1553               	.L83:
 1554               	.LSM187:
 1555 009c 00D0      		rcall .
 1556 009e 00D0      		rcall .
 1557 00a0 0F92      		push __tmp_reg__
 1558 00a2 EDB7      		in r30,__SP_L__
 1559 00a4 FEB7      		in r31,__SP_H__
 1560 00a6 3196      		adiw r30,1
 1561 00a8 8091 0000 		lds r24,aMug+2
 1562 00ac 9091 0000 		lds r25,aMug+2+1
 1563 00b0 ADB7      		in r26,__SP_L__
 1564 00b2 BEB7      		in r27,__SP_H__
 1565 00b4 1296      		adiw r26,1+1
 1566 00b6 9C93      		st X,r25
 1567 00b8 8E93      		st -X,r24
 1568 00ba 1197      		sbiw r26,1
 1569 00bc 87E0      		ldi r24,lo8(7)
 1570 00be 8283      		std Z+2,r24
 1571 00c0 1482      		std Z+4,__zero_reg__
 1572 00c2 1382      		std Z+3,__zero_reg__
 1573 00c4 0E94 0000 		call OLEDConstructMessage
 1574 00c8 0F90      		pop __tmp_reg__
 1575 00ca 0F90      		pop __tmp_reg__
 1576 00cc 0F90      		pop __tmp_reg__
 1577 00ce 0F90      		pop __tmp_reg__
 1578 00d0 0F90      		pop __tmp_reg__
 1579 00d2 8823      		tst r24
 1580 00d4 01F0      		breq .L82
 1581 00d6 8091 0000 		lds r24,aMug+2
 1582 00da 9091 0000 		lds r25,aMug+2+1
 1583 00de 0E94 0000 		call OLEDSendMessage
 1584               	.L82:
 1585               	.LBE549:
 1586               	.LBE548:
 1587               	.LSM188:
 1588 00e2 1092 0000 		sts elapsed.2481,__zero_reg__
 1589 00e6 1092 0000 		sts elapsed.2481+1,__zero_reg__
 1590 00ea 1092 0000 		sts elapsed.2481+2,__zero_reg__
 1591 00ee 1092 0000 		sts elapsed.2481+3,__zero_reg__
 1592               	.LSM189:
 1593 00f2 00C0      		rjmp .L78
 1594               	.LVL98:
 1595               	.L79:
 1596               	.LSM190:
 1597 00f4 8091 0000 		lds r24,elapsed.2481
 1598 00f8 9091 0000 		lds r25,elapsed.2481+1
 1599 00fc A091 0000 		lds r26,elapsed.2481+2
 1600 0100 B091 0000 		lds r27,elapsed.2481+3
 1601 0104 0097      		sbiw r24,0
 1602 0106 A105      		cpc r26,__zero_reg__
 1603 0108 B105      		cpc r27,__zero_reg__
 1604 010a 01F0      		breq .+2
 1605 010c 00C0      		rjmp .L85
 1606               	.LBB550:
 1607               	.LSM191:
 1608 010e 8DB7      		in r24,__SP_L__
 1609 0110 9EB7      		in r25,__SP_H__
 1610 0112 0897      		sbiw r24,8
 1611 0114 0FB6      		in __tmp_reg__,__SREG__
 1612 0116 F894      		cli
 1613 0118 9EBF      		out __SP_H__,r25
 1614 011a 0FBE      		out __SREG__,__tmp_reg__
 1615 011c 8DBF      		out __SP_L__,r24
 1616 011e EDB7      		in r30,__SP_L__
 1617 0120 FEB7      		in r31,__SP_H__
 1618 0122 3196      		adiw r30,1
 1619 0124 7E01      		movw r14,r28
 1620 0126 0894      		sec
 1621 0128 E11C      		adc r14,__zero_reg__
 1622 012a F11C      		adc r15,__zero_reg__
 1623 012c ADB7      		in r26,__SP_L__
 1624 012e BEB7      		in r27,__SP_H__
 1625 0130 1296      		adiw r26,1+1
 1626 0132 FC92      		st X,r15
 1627 0134 EE92      		st -X,r14
 1628 0136 1197      		sbiw r26,1
 1629 0138 8FE1      		ldi r24,lo8(31)
 1630 013a 90E0      		ldi r25,hi8(31)
 1631 013c 9383      		std Z+3,r25
 1632 013e 8283      		std Z+2,r24
 1633 0140 80E0      		ldi r24,lo8(.LC7)
 1634 0142 90E0      		ldi r25,hi8(.LC7)
 1635 0144 9583      		std Z+5,r25
 1636 0146 8483      		std Z+4,r24
 1637 0148 C801      		movw r24,r16
 1638 014a 68EE      		ldi r22,lo8(1000)
 1639 014c 73E0      		ldi r23,hi8(1000)
 1640 014e 0E94 0000 		call __udivmodhi4
 1641 0152 7783      		std Z+7,r23
 1642 0154 6683      		std Z+6,r22
 1643 0156 0E94 0000 		call snprintf
 1644               	.LBB551:
 1645               	.LSM192:
 1646 015a 0FB7      		in r16,__SREG__
 1647               	.LVL99:
 1648               	.LBB552:
 1649               	.LBB553:
 1650               	.LSM193:
 1651               	/* #APP */
 1652               	 ;  50 "/opt/local/lib/gcc/avr/4.5.2/../../../../avr/include/util/atomic.h" 1
 1653 015c F894      		cli
 1654               	 ;  0 "" 2
 1655               	.LVL100:
 1656               	/* #NOAPP */
 1657               	.LBE553:
 1658               	.LBE552:
 1659               	.LBB554:
 1660               	.LSM194:
 1661 015e 1091 0000 		lds r17,aMug+12
 1662               	.LVL101:
 1663 0162 8DB7      		in r24,__SP_L__
 1664 0164 9EB7      		in r25,__SP_H__
 1665 0166 0896      		adiw r24,8
 1666 0168 0FB6      		in __tmp_reg__,__SREG__
 1667 016a F894      		cli
 1668 016c 9EBF      		out __SP_H__,r25
 1669 016e 0FBE      		out __SREG__,__tmp_reg__
 1670 0170 8DBF      		out __SP_L__,r24
 1671 0172 80E0      		ldi r24,lo8(0)
 1672 0174 0E94 0000 		call mugSwitchConsoleTo
 1673               	.LVL102:
 1674               	.LBB555:
 1675               	.LBB556:
 1676               	.LBB557:
 1677               	.LBB558:
 1678               	.LSM195:
 1679 0178 E0E1      		ldi r30,lo8(10000)
 1680 017a F7E2      		ldi r31,hi8(10000)
 1681               	/* #APP */
 1682               	 ;  105 "/opt/local/lib/gcc/avr/4.5.2/../../../../avr/include/util/delay_basic.h" 1
 1683 017c 3197      		1: sbiw r30,1
 1684 017e 01F4      		brne 1b
 1685               	 ;  0 "" 2
 1686               	.LVL103:
 1687               	/* #NOAPP */
 1688               	.LBE558:
 1689               	.LBE557:
 1690               	.LBE556:
 1691               	.LBE555:
 1692               	.LSM196:
 1693 0180 00D0      		rcall .
 1694 0182 00D0      		rcall .
 1695 0184 0F92      		push __tmp_reg__
 1696 0186 EDB7      		in r30,__SP_L__
 1697 0188 FEB7      		in r31,__SP_H__
 1698 018a 3196      		adiw r30,1
 1699 018c 2091 0000 		lds r18,aMug+2
 1700 0190 3091 0000 		lds r19,aMug+2+1
 1701 0194 ADB7      		in r26,__SP_L__
 1702 0196 BEB7      		in r27,__SP_H__
 1703 0198 1296      		adiw r26,1+1
 1704 019a 3C93      		st X,r19
 1705 019c 2E93      		st -X,r18
 1706 019e 1197      		sbiw r26,1
 1707 01a0 88E0      		ldi r24,lo8(8)
 1708 01a2 8283      		std Z+2,r24
 1709 01a4 F482      		std Z+4,r15
 1710 01a6 E382      		std Z+3,r14
 1711 01a8 0E94 0000 		call OLEDConstructMessage
 1712 01ac 0F90      		pop __tmp_reg__
 1713 01ae 0F90      		pop __tmp_reg__
 1714 01b0 0F90      		pop __tmp_reg__
 1715 01b2 0F90      		pop __tmp_reg__
 1716 01b4 0F90      		pop __tmp_reg__
 1717 01b6 8823      		tst r24
 1718 01b8 01F0      		breq .L86
 1719               	.LSM197:
 1720 01ba 8091 0000 		lds r24,aMug+2
 1721 01be 9091 0000 		lds r25,aMug+2+1
 1722 01c2 0E94 0000 		call OLEDSendMessage
 1723               	.L86:
 1724               	.LSM198:
 1725 01c6 812F      		mov r24,r17
 1726 01c8 0E94 0000 		call mugSwitchConsoleTo
 1727               	.LVL104:
 1728               	.LBE554:
 1729               	.LBB559:
 1730               	.LBB560:
 1731               	.LSM199:
 1732 01cc 0FBF      		out __SREG__,r16
 1733               	.LSM200:
 1734               	.LBE560:
 1735               	.LBE559:
 1736               	.LBE551:
 1737               	.LBB561:
 1738               	.LSM201:
 1739 01ce 0FB7      		in r16,__SREG__
 1740               	.LVL105:
 1741               	.LBB562:
 1742               	.LBB563:
 1743               	.LSM202:
 1744               	/* #APP */
 1745               	 ;  50 "/opt/local/lib/gcc/avr/4.5.2/../../../../avr/include/util/atomic.h" 1
 1746 01d0 F894      		cli
 1747               	 ;  0 "" 2
 1748               	.LVL106:
 1749               	/* #NOAPP */
 1750               	.LBE563:
 1751               	.LBE562:
 1752               	.LBB564:
 1753               	.LSM203:
 1754 01d2 E090 0000 		lds r14,aMug+12
 1755               	.LVL107:
 1756 01d6 80E0      		ldi r24,lo8(0)
 1757 01d8 0E94 0000 		call mugSwitchConsoleTo
 1758               	.LVL108:
 1759               	.LBB565:
 1760               	.LBB566:
 1761               	.LBB567:
 1762               	.LBB568:
 1763               	.LSM204:
 1764 01dc E0E1      		ldi r30,lo8(10000)
 1765 01de F7E2      		ldi r31,hi8(10000)
 1766               	/* #APP */
 1767               	 ;  105 "/opt/local/lib/gcc/avr/4.5.2/../../../../avr/include/util/delay_basic.h" 1
 1768 01e0 3197      		1: sbiw r30,1
 1769 01e2 01F4      		brne 1b
 1770               	 ;  0 "" 2
 1771               	.LVL109:
 1772               	/* #NOAPP */
 1773               	.LBE568:
 1774               	.LBE567:
 1775               	.LBE566:
 1776               	.LBE565:
 1777               	.LSM205:
 1778 01e4 00D0      		rcall .
 1779 01e6 00D0      		rcall .
 1780 01e8 0F92      		push __tmp_reg__
 1781 01ea EDB7      		in r30,__SP_L__
 1782 01ec FEB7      		in r31,__SP_H__
 1783 01ee 3196      		adiw r30,1
 1784 01f0 2091 0000 		lds r18,aMug+2
 1785 01f4 3091 0000 		lds r19,aMug+2+1
 1786 01f8 ADB7      		in r26,__SP_L__
 1787 01fa BEB7      		in r27,__SP_H__
 1788 01fc 1296      		adiw r26,1+1
 1789 01fe 3C93      		st X,r19
 1790 0200 2E93      		st -X,r18
 1791 0202 1197      		sbiw r26,1
 1792 0204 88E0      		ldi r24,lo8(8)
 1793 0206 8283      		std Z+2,r24
 1794 0208 20E0      		ldi r18,lo8(.LC8)
 1795 020a 30E0      		ldi r19,hi8(.LC8)
 1796 020c 3483      		std Z+4,r19
 1797 020e 2383      		std Z+3,r18
 1798 0210 0E94 0000 		call OLEDConstructMessage
 1799 0214 0F90      		pop __tmp_reg__
 1800 0216 0F90      		pop __tmp_reg__
 1801 0218 0F90      		pop __tmp_reg__
 1802 021a 0F90      		pop __tmp_reg__
 1803 021c 0F90      		pop __tmp_reg__
 1804 021e 8823      		tst r24
 1805 0220 01F0      		breq .L87
 1806               	.LSM206:
 1807 0222 8091 0000 		lds r24,aMug+2
 1808 0226 9091 0000 		lds r25,aMug+2+1
 1809 022a 0E94 0000 		call OLEDSendMessage
 1810               	.L87:
 1811               	.LSM207:
 1812 022e 8E2D      		mov r24,r14
 1813 0230 0E94 0000 		call mugSwitchConsoleTo
 1814               	.LVL110:
 1815               	.LBE564:
 1816               	.LBB569:
 1817               	.LBB570:
 1818               	.LSM208:
 1819 0234 0FBF      		out __SREG__,r16
 1820               	.LSM209:
 1821               	.LBE570:
 1822               	.LBE569:
 1823               	.LBE561:
 1824               	.LSM210:
 1825 0236 0E94 0000 		call systemGetElapsedTime
 1826 023a 6093 0000 		sts elapsed.2481,r22
 1827 023e 7093 0000 		sts elapsed.2481+1,r23
 1828 0242 8093 0000 		sts elapsed.2481+2,r24
 1829 0246 9093 0000 		sts elapsed.2481+3,r25
 1830 024a 00C0      		rjmp .L78
 1831               	.LVL111:
 1832               	.L85:
 1833               	.LBE550:
 1834               	.LSM211:
 1835 024c 0E94 0000 		call systemGetElapsedTime
 1836 0250 2091 0000 		lds r18,elapsed.2481
 1837 0254 3091 0000 		lds r19,elapsed.2481+1
 1838 0258 4091 0000 		lds r20,elapsed.2481+2
 1839 025c 5091 0000 		lds r21,elapsed.2481+3
 1840 0260 621B      		sub r22,r18
 1841 0262 730B      		sbc r23,r19
 1842 0264 840B      		sbc r24,r20
 1843 0266 950B      		sbc r25,r21
 1844 0268 20E0      		ldi r18,lo8(0)
 1845 026a 30E0      		ldi r19,hi8(0)
 1846 026c 6017      		cp r22,r16
 1847 026e 7107      		cpc r23,r17
 1848 0270 8207      		cpc r24,r18
 1849 0272 9307      		cpc r25,r19
 1850 0274 00F0      		brlo .L78
 1851               	.LSM212:
 1852 0276 0E94 0000 		call mugShutdown
 1853               	.LVL112:
 1854               	.L78:
 1855               	/* epilogue start */
 1856               	.LSM213:
 1857 027a A096      		adiw r28,32
 1858 027c 0FB6      		in __tmp_reg__,__SREG__
 1859 027e F894      		cli
 1860 0280 DEBF      		out __SP_H__,r29
 1861 0282 0FBE      		out __SREG__,__tmp_reg__
 1862 0284 CDBF      		out __SP_L__,r28
 1863 0286 CF91      		pop r28
 1864 0288 DF91      		pop r29
 1865 028a 1F91      		pop r17
 1866 028c 0F91      		pop r16
 1867 028e FF90      		pop r15
 1868 0290 EF90      		pop r14
 1869 0292 0895      		ret
 1870               	.LFE37:
 1872               		.section	.text.mugHandleShortButtonPress,"ax",@progbits
 1874               	mugHandleShortButtonPress:
 1875               	.LFB42:
 1876               	.LSM214:
 1877 0000 0F93      		push r16
 1878 0002 1F93      		push r17
 1879               	/* prologue: function */
 1880               	/* frame size = 0 */
 1881               	/* stack size = 2 */
 1882               	.L__stack_usage = 2
 1883               	.LVL113:
 1884               	.LSM215:
 1885 0004 8091 0000 		lds r24,aMug+9
 1886 0008 8430      		cpi r24,lo8(4)
 1887 000a 01F0      		breq .L91
 1888 000c 8E30      		cpi r24,lo8(14)
 1889 000e 01F4      		brne .L96
 1890 0010 00C0      		rjmp .L97
 1891               	.L91:
 1892               	.LSM216:
 1893 0012 80E0      		ldi r24,lo8(0)
 1894 0014 90E0      		ldi r25,hi8(0)
 1895 0016 0E94 0000 		call switchToConsole
 1896               	.LVL114:
 1897               	.LSM217:
 1898 001a 00C0      		rjmp .L93
 1899               	.LVL115:
 1900               	.L97:
 1901               	.LSM218:
 1902 001c 80E0      		ldi r24,lo8(0)
 1903 001e 90E0      		ldi r25,hi8(0)
 1904 0020 0E94 0000 		call mugPowerDown
 1905               	.LSM219:
 1906 0024 8DE0      		ldi r24,lo8(13)
 1907               	.LSM220:
 1908 0026 00C0      		rjmp .L93
 1909               	.L96:
 1910               	.LSM221:
 1911 0028 8091 0000 		lds r24,aMug+28
 1912 002c 982F      		mov r25,r24
 1913 002e 9F5F      		subi r25,lo8(-(1))
 1914 0030 9093 0000 		sts aMug+28,r25
 1915 0034 8331      		cpi r24,lo8(19)
 1916 0036 00F0      		brlo .L94
 1917               	.LSM222:
 1918 0038 1092 0000 		sts aMug+28,__zero_reg__
 1919               	.L94:
 1920               	.LSM223:
 1921 003c 8091 0000 		lds r24,aMug+28
 1922 0040 0E94 0000 		call mugSelectMessage
 1923               	.LBB571:
 1924               	.LSM224:
 1925 0044 1FB7      		in r17,__SREG__
 1926               	.LVL116:
 1927               	.LBB572:
 1928               	.LBB573:
 1929               	.LSM225:
 1930               	/* #APP */
 1931               	 ;  50 "/opt/local/lib/gcc/avr/4.5.2/../../../../avr/include/util/atomic.h" 1
 1932 0046 F894      		cli
 1933               	 ;  0 "" 2
 1934               	.LVL117:
 1935               	/* #NOAPP */
 1936               	.LBE573:
 1937               	.LBE572:
 1938               	.LBB574:
 1939               	.LSM226:
 1940 0048 0091 0000 		lds r16,aMug+12
 1941               	.LVL118:
 1942 004c 80E0      		ldi r24,lo8(0)
 1943 004e 0E94 0000 		call mugSwitchConsoleTo
 1944               	.LVL119:
 1945               	.LBB575:
 1946               	.LBB576:
 1947               	.LBB577:
 1948               	.LBB578:
 1949               	.LSM227:
 1950 0052 E0E1      		ldi r30,lo8(10000)
 1951 0054 F7E2      		ldi r31,hi8(10000)
 1952               	/* #APP */
 1953               	 ;  105 "/opt/local/lib/gcc/avr/4.5.2/../../../../avr/include/util/delay_basic.h" 1
 1954 0056 3197      		1: sbiw r30,1
 1955 0058 01F4      		brne 1b
 1956               	 ;  0 "" 2
 1957               	.LVL120:
 1958               	/* #NOAPP */
 1959               	.LBE578:
 1960               	.LBE577:
 1961               	.LBE576:
 1962               	.LBE575:
 1963               	.LSM228:
 1964 005a 00D0      		rcall .
 1965 005c 00D0      		rcall .
 1966 005e 0F92      		push __tmp_reg__
 1967 0060 EDB7      		in r30,__SP_L__
 1968 0062 FEB7      		in r31,__SP_H__
 1969 0064 3196      		adiw r30,1
 1970 0066 2091 0000 		lds r18,aMug+2
 1971 006a 3091 0000 		lds r19,aMug+2+1
 1972 006e ADB7      		in r26,__SP_L__
 1973 0070 BEB7      		in r27,__SP_H__
 1974 0072 1296      		adiw r26,1+1
 1975 0074 3C93      		st X,r19
 1976 0076 2E93      		st -X,r18
 1977 0078 1197      		sbiw r26,1
 1978 007a 86E0      		ldi r24,lo8(6)
 1979 007c 8283      		std Z+2,r24
 1980 007e 20E0      		ldi r18,lo8(aMug+30)
 1981 0080 30E0      		ldi r19,hi8(aMug+30)
 1982 0082 3483      		std Z+4,r19
 1983 0084 2383      		std Z+3,r18
 1984 0086 0E94 0000 		call OLEDConstructMessage
 1985 008a 0F90      		pop __tmp_reg__
 1986 008c 0F90      		pop __tmp_reg__
 1987 008e 0F90      		pop __tmp_reg__
 1988 0090 0F90      		pop __tmp_reg__
 1989 0092 0F90      		pop __tmp_reg__
 1990 0094 8823      		tst r24
 1991 0096 01F0      		breq .L95
 1992               	.LSM229:
 1993 0098 8091 0000 		lds r24,aMug+2
 1994 009c 9091 0000 		lds r25,aMug+2+1
 1995 00a0 0E94 0000 		call OLEDSendMessage
 1996               	.L95:
 1997               	.LSM230:
 1998 00a4 802F      		mov r24,r16
 1999 00a6 0E94 0000 		call mugSwitchConsoleTo
 2000               	.LVL121:
 2001               	.LBE574:
 2002               	.LBB579:
 2003               	.LBB580:
 2004               	.LSM231:
 2005 00aa 1FBF      		out __SREG__,r17
 2006               	.LSM232:
 2007               	.LBE580:
 2008               	.LBE579:
 2009               	.LBE571:
 2010               	.LSM233:
 2011 00ac 8091 0000 		lds r24,aMug+9
 2012               	.LVL122:
 2013               	.L93:
 2014               	/* epilogue start */
 2015               	.LSM234:
 2016 00b0 1F91      		pop r17
 2017 00b2 0F91      		pop r16
 2018 00b4 0895      		ret
 2019               	.LFE42:
 2021               		.section	.init3,"ax",@progbits
 2022               	.global	get_mcusr
 2024               	get_mcusr:
 2025               	.LFB12:
 2026               	.LSM235:
 2027               	/* prologue: naked */
 2028               	/* frame size = 0 */
 2029               	/* stack size = 0 */
 2030               	.L__stack_usage = 0
 2031               	.LSM236:
 2032 0000 84B7      		in r24,84-0x20
 2033 0002 8093 0000 		sts mcusr_mirror,r24
 2034               	.LSM237:
 2035 0006 14BE      		out 84-0x20,__zero_reg__
 2036               	.LSM238:
 2037 0008 88E1      		ldi r24,lo8(24)
 2038               	/* #APP */
 2039               	 ;  189 "firmware/main.c" 1
 2040 000a 0FB6      		in __tmp_reg__, __SREG__
 2041 000c F894      		cli
 2042 000e 8093 6000 		sts 96, r24
 2043 0012 1092 6000 		sts 96, __zero_reg__
 2044 0016 0FBE      		out __SREG__,__tmp_reg__
 2045               		
 2046               	 ;  0 "" 2
 2047               	/* epilogue start */
 2048               	.LSM239:
 2049               	/* #NOAPP */
 2050               	.LFE12:
 2052               		.section	.text.__vector_8,"ax",@progbits
 2053               	.global	__vector_8
 2055               	__vector_8:
 2056               	.LFB52:
 2057               	.LSM240:
 2058 0000 1F92      		push __zero_reg__
 2059 0002 0F92      		push r0
 2060 0004 0FB6      		in r0,__SREG__
 2061 0006 0F92      		push r0
 2062 0008 0BB6      		in r0,91-0x20
 2063 000a 0F92      		push r0
 2064 000c 1124      		clr __zero_reg__
 2065 000e 2F93      		push r18
 2066 0010 3F93      		push r19
 2067 0012 4F93      		push r20
 2068 0014 5F93      		push r21
 2069 0016 6F93      		push r22
 2070 0018 7F93      		push r23
 2071 001a 8F93      		push r24
 2072 001c 9F93      		push r25
 2073 001e AF93      		push r26
 2074 0020 BF93      		push r27
 2075 0022 EF93      		push r30
 2076 0024 FF93      		push r31
 2077               	/* prologue: Signal */
 2078               	/* frame size = 0 */
 2079               	/* stack size = 16 */
 2080               	.L__stack_usage = 16
 2081               	.LSM241:
 2082 0026 8091 0000 		lds r24,aMug+9
 2083 002a 8823      		tst r24
 2084 002c 01F0      		breq .L100
 2085               	.LSM242:
 2086 002e 88E0      		ldi r24,lo8(8)
 2087 0030 0E94 0000 		call mugSetCurrentState
 2088               	.L100:
 2089               	.LSM243:
 2090 0034 8091 0000 		lds r24,activityTimer
 2091 0038 9091 0000 		lds r25,activityTimer+1
 2092 003c A091 0000 		lds r26,activityTimer+2
 2093 0040 B091 0000 		lds r27,activityTimer+3
 2094 0044 0196      		adiw r24,1
 2095 0046 A11D      		adc r26,__zero_reg__
 2096 0048 B11D      		adc r27,__zero_reg__
 2097 004a 8093 0000 		sts activityTimer,r24
 2098 004e 9093 0000 		sts activityTimer+1,r25
 2099 0052 A093 0000 		sts activityTimer+2,r26
 2100 0056 B093 0000 		sts activityTimer+3,r27
 2101               	/* epilogue start */
 2102               	.LSM244:
 2103 005a FF91      		pop r31
 2104 005c EF91      		pop r30
 2105 005e BF91      		pop r27
 2106 0060 AF91      		pop r26
 2107 0062 9F91      		pop r25
 2108 0064 8F91      		pop r24
 2109 0066 7F91      		pop r23
 2110 0068 6F91      		pop r22
 2111 006a 5F91      		pop r21
 2112 006c 4F91      		pop r20
 2113 006e 3F91      		pop r19
 2114 0070 2F91      		pop r18
 2115 0072 0F90      		pop r0
 2116 0074 0BBE      		out 91-0x20,r0
 2117 0076 0F90      		pop r0
 2118 0078 0FBE      		out __SREG__,r0
 2119 007a 0F90      		pop r0
 2120 007c 1F90      		pop __zero_reg__
 2121 007e 1895      		reti
 2122               	.LFE52:
 2124               		.data
 2125               	.LC9:
 2126 00ae 4865 6C6C 		.string	"Hello %s"
 2126      6F20 2573 
 2126      00
 2127               	.LC10:
 2128 00b7 5365 7474 		.string	"Setting up\nconnection"
 2128      696E 6720 
 2128      7570 0A63 
 2128      6F6E 6E65 
 2128      6374 696F 
 2129               	.LC11:
 2130 00cd 3030 3030 		.string	"0000"
 2130      00
 2131               	.LC12:
 2132 00d2 4646 4646 		.string	"FFFF"
 2132      00
 2133               	.LC13:
 2134 00d7 5365 7475 		.string	"Setup complete"
 2134      7020 636F 
 2134      6D70 6C65 
 2134      7465 00
 2135               	.LC14:
 2136 00e6 2A25 7325 		.string	"*%s%s"
 2136      7300 
 2137               	.LC15:
 2138 00ec 2F6D 6525 		.string	"/me%s"
 2138      7300 
 2139               	.LC16:
 2140 00f2 4461 726B 		.string	"Dark Roast Travel Mug configuration terminal\n\r"
 2140      2052 6F61 
 2140      7374 2054 
 2140      7261 7665 
 2140      6C20 4D75 
 2141               	.LC17:
 2142 0121 4E41 4D45 		.string	"NAME: "
 2142      3A20 00
 2143               	.LC18:
 2144 0128 2573 00   		.string	"%s"
 2145               	.LC19:
 2146 012b 4F4B 0A0D 		.string	"OK\n\r"
 2146      00
 2147               	.LC20:
 2148 0130 4944 3A20 		.string	"ID: "
 2148      00
 2149               	.LC21:
 2150 0135 5041 4E3A 		.string	"PAN: "
 2150      2000 
 2151               	.LC22:
 2152 013b 4348 414E 		.string	"CHANNEL: "
 2152      4E45 4C3A 
 2152      2000 
 2153               	.LC23:
 2154 0145 536C 6565 		.string	"Sleep: %d\n\r"
 2154      703A 2025 
 2154      640A 0D00 
 2155               	.LC24:
 2156 0151 4745 4E45 		.string	"GENERAL name: n \n\r"
 2156      5241 4C20 
 2156      6E61 6D65 
 2156      3A20 6E20 
 2156      0A0D 00
 2157               	.LC25:
 2158 0164 2020 6765 		.string	"  get: g\n\r"
 2158      743A 2067 
 2158      0A0D 00
 2159               	.LC26:
 2160 016f 2020 7365 		.string	"  set: s  name\n\r"
 2160      743A 2073 
 2160      2020 6E61 
 2160      6D65 0A0D 
 2160      00
 2161               	.LC27:
 2162 0180 4745 4E45 		.string	"GENERAL id: i \n\r"
 2162      5241 4C20 
 2162      6964 3A20 
 2162      6920 0A0D 
 2162      00
 2163               	.LC28:
 2164 0191 2020 7365 		.string	"  set: s  id\n\r"
 2164      743A 2073 
 2164      2020 6964 
 2164      0A0D 00
 2165               	.LC29:
 2166 01a0 4745 4E45 		.string	"GENERAL pan: p \n\r"
 2166      5241 4C20 
 2166      7061 6E3A 
 2166      2070 200A 
 2166      0D00 
 2167               	.LC30:
 2168 01b2 2020 7365 		.string	"  set: s  pan\n\r"
 2168      743A 2073 
 2168      2020 7061 
 2168      6E0A 0D00 
 2169               	.LC31:
 2170 01c2 4745 4E45 		.string	"GENERAL channel: c \n\r"
 2170      5241 4C20 
 2170      6368 616E 
 2170      6E65 6C3A 
 2170      2063 200A 
 2171               	.LC32:
 2172 01d8 2020 7365 		.string	"  set: s  channel\n\r"
 2172      743A 2073 
 2172      2020 6368 
 2172      616E 6E65 
 2172      6C0A 0D00 
 2173               	.LC33:
 2174 01ec 4745 4E45 		.string	"GENERAL sleep (seconds): s \n\r"
 2174      5241 4C20 
 2174      736C 6565 
 2174      7020 2873 
 2174      6563 6F6E 
 2175               	.LC34:
 2176 020a 2020 7365 		.string	"  set: s [1..255]\n\r"
 2176      743A 2073 
 2176      205B 312E 
 2176      2E32 3535 
 2176      5D0A 0D00 
 2177               	.LC35:
 2178 021e 2564 3A20 		.string	"%d: "
 2178      00
 2179               	.LC36:
 2180 0223 2A65 6D70 		.string	"*empty message*"
 2180      7479 206D 
 2180      6573 7361 
 2180      6765 2A00 
 2181               	.LC37:
 2182 0233 4D45 5353 		.string	"MESSAGES read: r [index]\n\r"
 2182      4147 4553 
 2182      2072 6561 
 2182      643A 2072 
 2182      205B 696E 
 2183               	.LC38:
 2184 024e 4D45 5353 		.string	"MESSAGES write: w index msg\n\r"
 2184      4147 4553 
 2184      2077 7269 
 2184      7465 3A20 
 2184      7720 696E 
 2185               	.LC39:
 2186 026c 4765 6E65 		.string	"General: g (g ? for help)\n\r"
 2186      7261 6C3A 
 2186      2067 2028 
 2186      6720 3F20 
 2186      666F 7220 
 2187               	.LC40:
 2188 0288 4D65 7373 		.string	"Messages: m (m ? for help)\n\r"
 2188      6167 6573 
 2188      3A20 6D20 
 2188      286D 203F 
 2188      2066 6F72 
 2189               	.LC41:
 2190 02a5 4163 6365 		.string	"Accel: a (debug accelerometer)\n\r"
 2190      6C3A 2061 
 2190      2028 6465 
 2190      6275 6720 
 2190      6163 6365 
 2191               	.LC42:
 2192 02c6 5368 7574 		.string	"Shutdown: s (shutdown now!)\n\r"
 2192      646F 776E 
 2192      3A20 7320 
 2192      2873 6875 
 2192      7464 6F77 
 2193               	.LC43:
 2194 02e4 4865 6C70 		.string	"Help: ?\n\r"
 2194      3A20 3F0A 
 2194      0D00 
 2195               	.LC44:
 2196 02ee 5E73 7973 		.string	"^sys Console Cancelled"
 2196      2043 6F6E 
 2196      736F 6C65 
 2196      2043 616E 
 2196      6365 6C6C 
 2197               	.LC45:
 2198 0305 4552 523A 		.string	"ERR: unknown command '"
 2198      2075 6E6B 
 2198      6E6F 776E 
 2198      2063 6F6D 
 2198      6D61 6E64 
 2199               	.LC46:
 2200 031c 270A 0D00 		.string	"'\n\r"
 2201               	.LC47:
 2202 0320 4552 523A 		.string	"ERR: parser error\n\r"
 2202      2070 6172 
 2202      7365 7220 
 2202      6572 726F 
 2202      720A 0D00 
 2203               	.LC48:
 2204 0334 4552 523A 		.string	"ERR: buffer overflow\n\r"
 2204      2062 7566 
 2204      6665 7220 
 2204      6F76 6572 
 2204      666C 6F77 
 2205               		.section	.text.main,"ax",@progbits
 2206               	.global	main
 2208               	main:
 2209               	.LFB53:
 2210               	.LSM245:
 2211               	.LVL123:
 2212 0000 2F92      		push r2
 2213 0002 3F92      		push r3
 2214 0004 4F92      		push r4
 2215 0006 5F92      		push r5
 2216 0008 6F92      		push r6
 2217 000a 7F92      		push r7
 2218 000c 8F92      		push r8
 2219 000e 9F92      		push r9
 2220 0010 AF92      		push r10
 2221 0012 BF92      		push r11
 2222 0014 CF92      		push r12
 2223 0016 DF92      		push r13
 2224 0018 EF92      		push r14
 2225 001a FF92      		push r15
 2226 001c 0F93      		push r16
 2227 001e 1F93      		push r17
 2228 0020 DF93      		push r29
 2229 0022 CF93      		push r28
 2230 0024 CDB7      		in r28,__SP_L__
 2231 0026 DEB7      		in r29,__SP_H__
 2232 0028 C95A      		subi r28,lo8(-(-169))
 2233 002a D040      		sbci r29,hi8(-(-169))
 2234 002c 0FB6      		in __tmp_reg__,__SREG__
 2235 002e F894      		cli
 2236 0030 DEBF      		out __SP_H__,r29
 2237 0032 0FBE      		out __SREG__,__tmp_reg__
 2238 0034 CDBF      		out __SP_L__,r28
 2239               	/* prologue: function */
 2240               	/* frame size = 169 */
 2241               	/* stack size = 187 */
 2242               	.L__stack_usage = 187
 2243               	.LBB813:
 2244               	.LBB814:
 2245               	.LSM246:
 2246               	/* #APP */
 2247               	 ;  429 "firmware/main.c" 1
 2248 0036 F894      		cli
 2249               	 ;  0 "" 2
 2250               	.LSM247:
 2251               	/* #NOAPP */
 2252 0038 0E94 0000 		call systemInitPower
 2253               	.LVL124:
 2254               	.LSM248:
 2255 003c 0E94 0000 		call systemInitClock
 2256               	.LBB815:
 2257               	.LBB816:
 2258               	.LSM249:
 2259 0040 9FB7      		in r25,__SREG__
 2260               	.LVL125:
 2261               	.LBB817:
 2262               	.LBB818:
 2263               	.LSM250:
 2264               	/* #APP */
 2265               	 ;  50 "/opt/local/lib/gcc/avr/4.5.2/../../../../avr/include/util/atomic.h" 1
 2266 0042 F894      		cli
 2267               	 ;  0 "" 2
 2268               	.LVL126:
 2269               	/* #NOAPP */
 2270               	.LBE818:
 2271               	.LBE817:
 2272               	.LSM251:
 2273               	/* #APP */
 2274               	 ;  421 "firmware/main.c" 1
 2275 0044 A895      		wdr
 2276               	 ;  0 "" 2
 2277               	.LSM252:
 2278               	/* #NOAPP */
 2279 0046 8091 6000 		lds r24,96
 2280 004a 8861      		ori r24,lo8(24)
 2281 004c 8093 6000 		sts 96,r24
 2282               	.LSM253:
 2283 0050 86E4      		ldi r24,lo8(70)
 2284 0052 8093 6000 		sts 96,r24
 2285               	.LVL127:
 2286               	.LBB819:
 2287               	.LBB820:
 2288               	.LSM254:
 2289 0056 9FBF      		out __SREG__,r25
 2290               	.LSM255:
 2291               	.L102:
 2292               	.LBE820:
 2293               	.LBE819:
 2294               	.LBE816:
 2295               	.LBE815:
 2296               	.LSM256:
 2297 0058 8091 7A00 		lds r24,122
 2298 005c 86FD      		sbrc r24,6
 2299 005e 00C0      		rjmp .L102
 2300 0060 80E4      		ldi r24,lo8(64)
 2301 0062 8093 7C00 		sts 124,r24
 2302 0066 86EC      		ldi r24,lo8(-58)
 2303 0068 8093 7A00 		sts 122,r24
 2304               	.LSM257:
 2305               	/* #APP */
 2306               	 ;  434 "firmware/main.c" 1
 2307 006c 7894      		sei
 2308               	 ;  0 "" 2
 2309               	/* #NOAPP */
 2310               	.LBE814:
 2311               	.LBE813:
 2312               	.LSM258:
 2313 006e 0E94 0000 		call mugReadConfig
 2314               	.LVL128:
 2315               	.LBB821:
 2316               	.LBB822:
 2317               	.LSM259:
 2318 0072 83E0      		ldi r24,lo8(3)
 2319 0074 64E0      		ldi r22,lo8(4)
 2320 0076 0E94 0000 		call GPIOCreate
 2321 007a 9093 0000 		sts aMug+16+1,r25
 2322 007e 8093 0000 		sts aMug+16,r24
 2323               	.LSM260:
 2324 0082 83E0      		ldi r24,lo8(3)
 2325 0084 65E0      		ldi r22,lo8(5)
 2326 0086 0E94 0000 		call GPIOCreate
 2327 008a 9093 0000 		sts aMug+14+1,r25
 2328 008e 8093 0000 		sts aMug+14,r24
 2329               	.LSM261:
 2330 0092 81E0      		ldi r24,lo8(1)
 2331 0094 40E0      		ldi r20,lo8(19200)
 2332 0096 5BE4      		ldi r21,hi8(19200)
 2333 0098 60E0      		ldi r22,hlo8(19200)
 2334 009a 70E0      		ldi r23,hhi8(19200)
 2335 009c 23E0      		ldi r18,lo8(3)
 2336 009e 00E0      		ldi r16,lo8(0)
 2337 00a0 EE24      		clr r14
 2338 00a2 CC24      		clr r12
 2339 00a4 0E94 0000 		call usart_init
 2340 00a8 9093 0000 		sts aMug+4+1,r25
 2341 00ac 8093 0000 		sts aMug+4,r24
 2342               	.LSM262:
 2343 00b0 0E94 0000 		call OLEDCreate
 2344 00b4 9093 0000 		sts aMug+2+1,r25
 2345 00b8 8093 0000 		sts aMug+2,r24
 2346               	.LSM263:
 2347 00bc 80E0      		ldi r24,lo8(0)
 2348 00be 0E94 0000 		call mugSwitchConsoleTo
 2349               	.LBB823:
 2350               	.LBB824:
 2351               	.LSM264:
 2352 00c2 8091 0000 		lds r24,aMug+14
 2353 00c6 9091 0000 		lds r25,aMug+14+1
 2354 00ca 64E0      		ldi r22,lo8(4)
 2355 00cc 0E94 0000 		call GPIOSetDirection
 2356               	.LBE824:
 2357               	.LBE823:
 2358               	.LSM265:
 2359 00d0 8091 0000 		lds r24,aMug+2
 2360 00d4 9091 0000 		lds r25,aMug+2+1
 2361 00d8 0E94 0000 		call OLEDEnable
 2362               	.LSM266:
 2363 00dc 8091 0000 		lds r24,aMug+2
 2364 00e0 9091 0000 		lds r25,aMug+2+1
 2365 00e4 0E94 0000 		call OLEDWaitForResponse
 2366               	.LBE822:
 2367               	.LBE821:
 2368               	.LSM267:
 2369 00e8 85E0      		ldi r24,lo8(5)
 2370 00ea 0E94 0000 		call systemMainPower
 2371               	.LSM268:
 2372 00ee 2DB7      		in r18,__SP_L__
 2373 00f0 3EB7      		in r19,__SP_H__
 2374 00f2 2750      		subi r18,lo8(-(-7))
 2375 00f4 3040      		sbci r19,hi8(-(-7))
 2376 00f6 0FB6      		in __tmp_reg__,__SREG__
 2377 00f8 F894      		cli
 2378 00fa 3EBF      		out __SP_H__,r19
 2379 00fc 0FBE      		out __SREG__,__tmp_reg__
 2380 00fe 2DBF      		out __SP_L__,r18
 2381 0100 EDB7      		in r30,__SP_L__
 2382 0102 FEB7      		in r31,__SP_H__
 2383 0104 3196      		adiw r30,1
 2384 0106 8091 0000 		lds r24,aMug+2
 2385 010a 9091 0000 		lds r25,aMug+2+1
 2386 010e ADB7      		in r26,__SP_L__
 2387 0110 BEB7      		in r27,__SP_H__
 2388 0112 1296      		adiw r26,1+1
 2389 0114 9C93      		st X,r25
 2390 0116 8E93      		st -X,r24
 2391 0118 1197      		sbiw r26,1
 2392 011a 81E0      		ldi r24,lo8(1)
 2393 011c 8283      		std Z+2,r24
 2394 011e 81E0      		ldi r24,lo8(1)
 2395 0120 90E0      		ldi r25,hi8(1)
 2396 0122 9483      		std Z+4,r25
 2397 0124 8383      		std Z+3,r24
 2398 0126 9683      		std Z+6,r25
 2399 0128 8583      		std Z+5,r24
 2400 012a 0E94 0000 		call OLEDConstructMessage
 2401 012e EDB7      		in r30,__SP_L__
 2402 0130 FEB7      		in r31,__SP_H__
 2403 0132 3796      		adiw r30,7
 2404 0134 0FB6      		in __tmp_reg__,__SREG__
 2405 0136 F894      		cli
 2406 0138 FEBF      		out __SP_H__,r31
 2407 013a 0FBE      		out __SREG__,__tmp_reg__
 2408 013c EDBF      		out __SP_L__,r30
 2409 013e 8823      		tst r24
 2410 0140 01F0      		breq .L103
 2411               	.LSM269:
 2412 0142 8091 0000 		lds r24,aMug+2
 2413 0146 9091 0000 		lds r25,aMug+2+1
 2414 014a 0E94 0000 		call OLEDSendMessage
 2415               	.L103:
 2416               	.LSM270:
 2417 014e 00D0      		rcall .
 2418 0150 00D0      		rcall .
 2419 0152 0F92      		push __tmp_reg__
 2420 0154 EDB7      		in r30,__SP_L__
 2421 0156 FEB7      		in r31,__SP_H__
 2422 0158 3196      		adiw r30,1
 2423 015a 8091 0000 		lds r24,aMug+2
 2424 015e 9091 0000 		lds r25,aMug+2+1
 2425 0162 ADB7      		in r26,__SP_L__
 2426 0164 BEB7      		in r27,__SP_H__
 2427 0166 1296      		adiw r26,1+1
 2428 0168 9C93      		st X,r25
 2429 016a 8E93      		st -X,r24
 2430 016c 1197      		sbiw r26,1
 2431 016e 8BE0      		ldi r24,lo8(11)
 2432 0170 8283      		std Z+2,r24
 2433 0172 80E0      		ldi r24,lo8(aMug+158)
 2434 0174 90E0      		ldi r25,hi8(aMug+158)
 2435 0176 9483      		std Z+4,r25
 2436 0178 8383      		std Z+3,r24
 2437 017a 0E94 0000 		call OLEDConstructMessage
 2438 017e 0F90      		pop __tmp_reg__
 2439 0180 0F90      		pop __tmp_reg__
 2440 0182 0F90      		pop __tmp_reg__
 2441 0184 0F90      		pop __tmp_reg__
 2442 0186 0F90      		pop __tmp_reg__
 2443 0188 8823      		tst r24
 2444 018a 01F0      		breq .L104
 2445               	.LSM271:
 2446 018c 8091 0000 		lds r24,aMug+2
 2447 0190 9091 0000 		lds r25,aMug+2+1
 2448 0194 0E94 0000 		call OLEDSendMessage
 2449               	.L104:
 2450               	.LSM272:
 2451 0198 EDB7      		in r30,__SP_L__
 2452 019a FEB7      		in r31,__SP_H__
 2453 019c 3897      		sbiw r30,8
 2454 019e 0FB6      		in __tmp_reg__,__SREG__
 2455 01a0 F894      		cli
 2456 01a2 FEBF      		out __SP_H__,r31
 2457 01a4 0FBE      		out __SREG__,__tmp_reg__
 2458 01a6 EDBF      		out __SP_L__,r30
 2459 01a8 3196      		adiw r30,1
 2460 01aa 8E01      		movw r16,r28
 2461 01ac 0F5F      		subi r16,lo8(-(1))
 2462 01ae 1F4F      		sbci r17,hi8(-(1))
 2463 01b0 ADB7      		in r26,__SP_L__
 2464 01b2 BEB7      		in r27,__SP_H__
 2465 01b4 1296      		adiw r26,1+1
 2466 01b6 1C93      		st X,r17
 2467 01b8 0E93      		st -X,r16
 2468 01ba 1197      		sbiw r26,1
 2469 01bc 80E2      		ldi r24,lo8(32)
 2470 01be 90E0      		ldi r25,hi8(32)
 2471 01c0 9383      		std Z+3,r25
 2472 01c2 8283      		std Z+2,r24
 2473 01c4 80E0      		ldi r24,lo8(.LC9)
 2474 01c6 90E0      		ldi r25,hi8(.LC9)
 2475 01c8 9583      		std Z+5,r25
 2476 01ca 8483      		std Z+4,r24
 2477 01cc 80E0      		ldi r24,lo8(aMug+158)
 2478 01ce 90E0      		ldi r25,hi8(aMug+158)
 2479 01d0 9783      		std Z+7,r25
 2480 01d2 8683      		std Z+6,r24
 2481 01d4 0E94 0000 		call snprintf
 2482               	.LBB825:
 2483               	.LSM273:
 2484 01d8 EFB6      		in r14,__SREG__
 2485               	.LVL129:
 2486               	.LBB826:
 2487               	.LBB827:
 2488               	.LSM274:
 2489               	/* #APP */
 2490               	 ;  50 "/opt/local/lib/gcc/avr/4.5.2/../../../../avr/include/util/atomic.h" 1
 2491 01da F894      		cli
 2492               	 ;  0 "" 2
 2493               	.LVL130:
 2494               	/* #NOAPP */
 2495               	.LBE827:
 2496               	.LBE826:
 2497               	.LBB828:
 2498               	.LSM275:
 2499 01dc C090 0000 		lds r12,aMug+12
 2500               	.LVL131:
 2501 01e0 EDB7      		in r30,__SP_L__
 2502 01e2 FEB7      		in r31,__SP_H__
 2503 01e4 3896      		adiw r30,8
 2504 01e6 0FB6      		in __tmp_reg__,__SREG__
 2505 01e8 F894      		cli
 2506 01ea FEBF      		out __SP_H__,r31
 2507 01ec 0FBE      		out __SREG__,__tmp_reg__
 2508 01ee EDBF      		out __SP_L__,r30
 2509 01f0 80E0      		ldi r24,lo8(0)
 2510 01f2 0E94 0000 		call mugSwitchConsoleTo
 2511               	.LVL132:
 2512               	.LBB829:
 2513               	.LBB830:
 2514               	.LBB831:
 2515               	.LBB832:
 2516               	.LSM276:
 2517 01f6 E0E1      		ldi r30,lo8(10000)
 2518 01f8 F7E2      		ldi r31,hi8(10000)
 2519               	/* #APP */
 2520               	 ;  105 "/opt/local/lib/gcc/avr/4.5.2/../../../../avr/include/util/delay_basic.h" 1
 2521 01fa 3197      		1: sbiw r30,1
 2522 01fc 01F4      		brne 1b
 2523               	 ;  0 "" 2
 2524               	.LVL133:
 2525               	/* #NOAPP */
 2526               	.LBE832:
 2527               	.LBE831:
 2528               	.LBE830:
 2529               	.LBE829:
 2530               	.LSM277:
 2531 01fe 00D0      		rcall .
 2532 0200 00D0      		rcall .
 2533 0202 0F92      		push __tmp_reg__
 2534 0204 EDB7      		in r30,__SP_L__
 2535 0206 FEB7      		in r31,__SP_H__
 2536 0208 3196      		adiw r30,1
 2537 020a 2091 0000 		lds r18,aMug+2
 2538 020e 3091 0000 		lds r19,aMug+2+1
 2539 0212 ADB7      		in r26,__SP_L__
 2540 0214 BEB7      		in r27,__SP_H__
 2541 0216 1296      		adiw r26,1+1
 2542 0218 3C93      		st X,r19
 2543 021a 2E93      		st -X,r18
 2544 021c 1197      		sbiw r26,1
 2545 021e 88E0      		ldi r24,lo8(8)
 2546 0220 8283      		std Z+2,r24
 2547 0222 1483      		std Z+4,r17
 2548 0224 0383      		std Z+3,r16
 2549 0226 0E94 0000 		call OLEDConstructMessage
 2550 022a 0F90      		pop __tmp_reg__
 2551 022c 0F90      		pop __tmp_reg__
 2552 022e 0F90      		pop __tmp_reg__
 2553 0230 0F90      		pop __tmp_reg__
 2554 0232 0F90      		pop __tmp_reg__
 2555 0234 8823      		tst r24
 2556 0236 01F0      		breq .L105
 2557               	.LSM278:
 2558 0238 8091 0000 		lds r24,aMug+2
 2559 023c 9091 0000 		lds r25,aMug+2+1
 2560 0240 0E94 0000 		call OLEDSendMessage
 2561               	.L105:
 2562               	.LSM279:
 2563 0244 8C2D      		mov r24,r12
 2564 0246 0E94 0000 		call mugSwitchConsoleTo
 2565               	.LVL134:
 2566               	.LBE828:
 2567               	.LBB833:
 2568               	.LBB834:
 2569               	.LSM280:
 2570 024a EFBE      		out __SREG__,r14
 2571               	.LSM281:
 2572               	.LBE834:
 2573               	.LBE833:
 2574               	.LBE825:
 2575               	.LBB835:
 2576               	.LSM282:
 2577 024c 0FB7      		in r16,__SREG__
 2578               	.LVL135:
 2579               	.LBB836:
 2580               	.LBB837:
 2581               	.LSM283:
 2582               	/* #APP */
 2583               	 ;  50 "/opt/local/lib/gcc/avr/4.5.2/../../../../avr/include/util/atomic.h" 1
 2584 024e F894      		cli
 2585               	 ;  0 "" 2
 2586               	.LVL136:
 2587               	/* #NOAPP */
 2588               	.LBE837:
 2589               	.LBE836:
 2590               	.LBB838:
 2591               	.LSM284:
 2592 0250 E090 0000 		lds r14,aMug+12
 2593               	.LVL137:
 2594 0254 80E0      		ldi r24,lo8(0)
 2595 0256 0E94 0000 		call mugSwitchConsoleTo
 2596               	.LVL138:
 2597               	.LBB839:
 2598               	.LBB840:
 2599               	.LBB841:
 2600               	.LBB842:
 2601               	.LSM285:
 2602 025a E0E1      		ldi r30,lo8(10000)
 2603 025c F7E2      		ldi r31,hi8(10000)
 2604               	/* #APP */
 2605               	 ;  105 "/opt/local/lib/gcc/avr/4.5.2/../../../../avr/include/util/delay_basic.h" 1
 2606 025e 3197      		1: sbiw r30,1
 2607 0260 01F4      		brne 1b
 2608               	 ;  0 "" 2
 2609               	.LVL139:
 2610               	/* #NOAPP */
 2611               	.LBE842:
 2612               	.LBE841:
 2613               	.LBE840:
 2614               	.LBE839:
 2615               	.LSM286:
 2616 0262 00D0      		rcall .
 2617 0264 00D0      		rcall .
 2618 0266 0F92      		push __tmp_reg__
 2619 0268 EDB7      		in r30,__SP_L__
 2620 026a FEB7      		in r31,__SP_H__
 2621 026c 3196      		adiw r30,1
 2622 026e 2091 0000 		lds r18,aMug+2
 2623 0272 3091 0000 		lds r19,aMug+2+1
 2624 0276 ADB7      		in r26,__SP_L__
 2625 0278 BEB7      		in r27,__SP_H__
 2626 027a 1296      		adiw r26,1+1
 2627 027c 3C93      		st X,r19
 2628 027e 2E93      		st -X,r18
 2629 0280 1197      		sbiw r26,1
 2630 0282 88E0      		ldi r24,lo8(8)
 2631 0284 8283      		std Z+2,r24
 2632 0286 20E0      		ldi r18,lo8(.LC10)
 2633 0288 30E0      		ldi r19,hi8(.LC10)
 2634 028a 3483      		std Z+4,r19
 2635 028c 2383      		std Z+3,r18
 2636 028e 0E94 0000 		call OLEDConstructMessage
 2637 0292 0F90      		pop __tmp_reg__
 2638 0294 0F90      		pop __tmp_reg__
 2639 0296 0F90      		pop __tmp_reg__
 2640 0298 0F90      		pop __tmp_reg__
 2641 029a 0F90      		pop __tmp_reg__
 2642 029c 8823      		tst r24
 2643 029e 01F0      		breq .L106
 2644               	.LSM287:
 2645 02a0 8091 0000 		lds r24,aMug+2
 2646 02a4 9091 0000 		lds r25,aMug+2+1
 2647 02a8 0E94 0000 		call OLEDSendMessage
 2648               	.L106:
 2649               	.LSM288:
 2650 02ac 8E2D      		mov r24,r14
 2651 02ae 0E94 0000 		call mugSwitchConsoleTo
 2652               	.LVL140:
 2653               	.LBE838:
 2654               	.LBB843:
 2655               	.LBB844:
 2656               	.LSM289:
 2657 02b2 0FBF      		out __SREG__,r16
 2658               	.LSM290:
 2659               	.LBE844:
 2660               	.LBE843:
 2661               	.LBE835:
 2662               	.LBB845:
 2663               	.LBB846:
 2664               	.LSM291:
 2665 02b4 80E0      		ldi r24,lo8(0)
 2666 02b6 40E8      		ldi r20,lo8(9600)
 2667 02b8 55E2      		ldi r21,hi8(9600)
 2668 02ba 60E0      		ldi r22,hlo8(9600)
 2669 02bc 70E0      		ldi r23,hhi8(9600)
 2670 02be 23E0      		ldi r18,lo8(3)
 2671 02c0 00E0      		ldi r16,lo8(0)
 2672               	.LVL141:
 2673 02c2 EE24      		clr r14
 2674               	.LVL142:
 2675 02c4 CC24      		clr r12
 2676               	.LVL143:
 2677 02c6 0E94 0000 		call usart_init
 2678               	.LVL144:
 2679 02ca 9093 0000 		sts aMug+6+1,r25
 2680 02ce 8093 0000 		sts aMug+6,r24
 2681               	.LSM292:
 2682 02d2 0E94 0000 		call XBeeCreate
 2683 02d6 9093 0000 		sts aMug+1,r25
 2684 02da 8093 0000 		sts aMug,r24
 2685               	.LBE846:
 2686               	.LBE845:
 2687               	.LBB847:
 2688               	.LBB848:
 2689               	.LSM293:
 2690 02de 0E94 0000 		call XBeeLeaveSleepMode
 2691               	.LSM294:
 2692 02e2 8091 0000 		lds r24,aMug
 2693 02e6 9091 0000 		lds r25,aMug+1
 2694 02ea 0E94 0000 		call XBeeEnterCommandMode
 2695               	.LSM295:
 2696 02ee 8091 0000 		lds r24,aMug
 2697 02f2 9091 0000 		lds r25,aMug+1
 2698 02f6 60E0      		ldi r22,lo8(.LC11)
 2699 02f8 70E0      		ldi r23,hi8(.LC11)
 2700 02fa 40E0      		ldi r20,lo8(.LC12)
 2701 02fc 50E0      		ldi r21,hi8(.LC12)
 2702 02fe 0E94 0000 		call XBeeSetDestination
 2703               	.LSM296:
 2704 0302 8091 0000 		lds r24,aMug
 2705 0306 9091 0000 		lds r25,aMug+1
 2706 030a 60E0      		ldi r22,lo8(aMug+174)
 2707 030c 70E0      		ldi r23,hi8(aMug+174)
 2708 030e 0E94 0000 		call XBeeSetMyId
 2709               	.LSM297:
 2710 0312 8091 0000 		lds r24,aMug
 2711 0316 9091 0000 		lds r25,aMug+1
 2712 031a 60E0      		ldi r22,lo8(aMug+179)
 2713 031c 70E0      		ldi r23,hi8(aMug+179)
 2714 031e 0E94 0000 		call XBeeSetPanId
 2715               	.LSM298:
 2716 0322 8091 0000 		lds r24,aMug
 2717 0326 9091 0000 		lds r25,aMug+1
 2718 032a 60E0      		ldi r22,lo8(aMug+184)
 2719 032c 70E0      		ldi r23,hi8(aMug+184)
 2720 032e 0E94 0000 		call XBeeSetChannel
 2721               	.LSM299:
 2722 0332 8091 0000 		lds r24,aMug
 2723 0336 9091 0000 		lds r25,aMug+1
 2724 033a 60E0      		ldi r22,lo8(0)
 2725 033c 0E94 0000 		call XBeeSetCoordinatorMode
 2726               	.LSM300:
 2727 0340 8091 0000 		lds r24,aMug
 2728 0344 9091 0000 		lds r25,aMug+1
 2729 0348 60E0      		ldi r22,lo8(0)
 2730 034a 0E94 0000 		call XBeeSetEndDeviceAssociation
 2731               	.LBB849:
 2732               	.LSM301:
 2733 034e EFB6      		in r14,__SREG__
 2734               	.LVL145:
 2735               	.LBB850:
 2736               	.LBB851:
 2737               	.LSM302:
 2738               	/* #APP */
 2739               	 ;  50 "/opt/local/lib/gcc/avr/4.5.2/../../../../avr/include/util/atomic.h" 1
 2740 0350 F894      		cli
 2741               	 ;  0 "" 2
 2742               	.LVL146:
 2743               	/* #NOAPP */
 2744               	.LBE851:
 2745               	.LBE850:
 2746               	.LBB852:
 2747               	.LSM303:
 2748 0352 C090 0000 		lds r12,aMug+12
 2749               	.LVL147:
 2750 0356 80E0      		ldi r24,lo8(0)
 2751 0358 0E94 0000 		call mugSwitchConsoleTo
 2752               	.LVL148:
 2753               	.LBB853:
 2754               	.LBB854:
 2755               	.LBB855:
 2756               	.LBB856:
 2757               	.LSM304:
 2758 035c E0E1      		ldi r30,lo8(10000)
 2759 035e F7E2      		ldi r31,hi8(10000)
 2760               	/* #APP */
 2761               	 ;  105 "/opt/local/lib/gcc/avr/4.5.2/../../../../avr/include/util/delay_basic.h" 1
 2762 0360 3197      		1: sbiw r30,1
 2763 0362 01F4      		brne 1b
 2764               	 ;  0 "" 2
 2765               	.LVL149:
 2766               	/* #NOAPP */
 2767               	.LBE856:
 2768               	.LBE855:
 2769               	.LBE854:
 2770               	.LBE853:
 2771               	.LSM305:
 2772 0364 0091 0000 		lds r16,aMug+2
 2773 0368 1091 0000 		lds r17,aMug+2+1
 2774 036c 8091 0000 		lds r24,aMug
 2775 0370 9091 0000 		lds r25,aMug+1
 2776 0374 0E94 0000 		call XBeeRetrieveMessage
 2777 0378 00D0      		rcall .
 2778 037a 00D0      		rcall .
 2779 037c 0F92      		push __tmp_reg__
 2780 037e EDB7      		in r30,__SP_L__
 2781 0380 FEB7      		in r31,__SP_H__
 2782 0382 3196      		adiw r30,1
 2783 0384 ADB7      		in r26,__SP_L__
 2784 0386 BEB7      		in r27,__SP_H__
 2785 0388 1296      		adiw r26,1+1
 2786 038a 1C93      		st X,r17
 2787 038c 0E93      		st -X,r16
 2788 038e 1197      		sbiw r26,1
 2789 0390 28E0      		ldi r18,lo8(8)
 2790 0392 2283      		std Z+2,r18
 2791 0394 9483      		std Z+4,r25
 2792 0396 8383      		std Z+3,r24
 2793 0398 0E94 0000 		call OLEDConstructMessage
 2794 039c 0F90      		pop __tmp_reg__
 2795 039e 0F90      		pop __tmp_reg__
 2796 03a0 0F90      		pop __tmp_reg__
 2797 03a2 0F90      		pop __tmp_reg__
 2798 03a4 0F90      		pop __tmp_reg__
 2799 03a6 8823      		tst r24
 2800 03a8 01F0      		breq .L107
 2801               	.LSM306:
 2802 03aa 8091 0000 		lds r24,aMug+2
 2803 03ae 9091 0000 		lds r25,aMug+2+1
 2804 03b2 0E94 0000 		call OLEDSendMessage
 2805               	.L107:
 2806 03b6 8C2D      		mov r24,r12
 2807 03b8 0E94 0000 		call mugSwitchConsoleTo
 2808               	.LVL150:
 2809               	.LBE852:
 2810               	.LBB857:
 2811               	.LBB858:
 2812               	.LSM307:
 2813 03bc EFBE      		out __SREG__,r14
 2814               	.LSM308:
 2815               	.LBE858:
 2816               	.LBE857:
 2817               	.LBE849:
 2818               	.LSM309:
 2819 03be 8091 0000 		lds r24,aMug
 2820 03c2 9091 0000 		lds r25,aMug+1
 2821 03c6 0E94 0000 		call XBeeLeaveCommandMode
 2822               	.LBE848:
 2823               	.LBE847:
 2824               	.LSM310:
 2825 03ca 8091 0000 		lds r24,aMug+28
 2826 03ce 0E94 0000 		call mugSelectMessage
 2827               	.LBB859:
 2828               	.LSM311:
 2829 03d2 0FB7      		in r16,__SREG__
 2830               	.LVL151:
 2831               	.LBB860:
 2832               	.LBB861:
 2833               	.LSM312:
 2834               	/* #APP */
 2835               	 ;  50 "/opt/local/lib/gcc/avr/4.5.2/../../../../avr/include/util/atomic.h" 1
 2836 03d4 F894      		cli
 2837               	 ;  0 "" 2
 2838               	.LVL152:
 2839               	/* #NOAPP */
 2840               	.LBE861:
 2841               	.LBE860:
 2842               	.LBB862:
 2843               	.LSM313:
 2844 03d6 E090 0000 		lds r14,aMug+12
 2845               	.LVL153:
 2846 03da 80E0      		ldi r24,lo8(0)
 2847 03dc 0E94 0000 		call mugSwitchConsoleTo
 2848               	.LVL154:
 2849               	.LBB863:
 2850               	.LBB864:
 2851               	.LBB865:
 2852               	.LBB866:
 2853               	.LSM314:
 2854 03e0 E0E1      		ldi r30,lo8(10000)
 2855 03e2 F7E2      		ldi r31,hi8(10000)
 2856               	/* #APP */
 2857               	 ;  105 "/opt/local/lib/gcc/avr/4.5.2/../../../../avr/include/util/delay_basic.h" 1
 2858 03e4 3197      		1: sbiw r30,1
 2859 03e6 01F4      		brne 1b
 2860               	 ;  0 "" 2
 2861               	.LVL155:
 2862               	/* #NOAPP */
 2863               	.LBE866:
 2864               	.LBE865:
 2865               	.LBE864:
 2866               	.LBE863:
 2867               	.LSM315:
 2868 03e8 00D0      		rcall .
 2869 03ea 00D0      		rcall .
 2870 03ec 0F92      		push __tmp_reg__
 2871 03ee EDB7      		in r30,__SP_L__
 2872 03f0 FEB7      		in r31,__SP_H__
 2873 03f2 3196      		adiw r30,1
 2874 03f4 2091 0000 		lds r18,aMug+2
 2875 03f8 3091 0000 		lds r19,aMug+2+1
 2876 03fc ADB7      		in r26,__SP_L__
 2877 03fe BEB7      		in r27,__SP_H__
 2878 0400 1296      		adiw r26,1+1
 2879 0402 3C93      		st X,r19
 2880 0404 2E93      		st -X,r18
 2881 0406 1197      		sbiw r26,1
 2882 0408 86E0      		ldi r24,lo8(6)
 2883 040a 8283      		std Z+2,r24
 2884 040c 20E0      		ldi r18,lo8(aMug+30)
 2885 040e 30E0      		ldi r19,hi8(aMug+30)
 2886 0410 3483      		std Z+4,r19
 2887 0412 2383      		std Z+3,r18
 2888 0414 0E94 0000 		call OLEDConstructMessage
 2889 0418 0F90      		pop __tmp_reg__
 2890 041a 0F90      		pop __tmp_reg__
 2891 041c 0F90      		pop __tmp_reg__
 2892 041e 0F90      		pop __tmp_reg__
 2893 0420 0F90      		pop __tmp_reg__
 2894 0422 8823      		tst r24
 2895 0424 01F0      		breq .L108
 2896               	.LSM316:
 2897 0426 8091 0000 		lds r24,aMug+2
 2898 042a 9091 0000 		lds r25,aMug+2+1
 2899 042e 0E94 0000 		call OLEDSendMessage
 2900               	.L108:
 2901               	.LSM317:
 2902 0432 8E2D      		mov r24,r14
 2903 0434 0E94 0000 		call mugSwitchConsoleTo
 2904               	.LVL156:
 2905               	.LBE862:
 2906               	.LBB867:
 2907               	.LBB868:
 2908               	.LSM318:
 2909 0438 0FBF      		out __SREG__,r16
 2910               	.LSM319:
 2911               	.LBE868:
 2912               	.LBE867:
 2913               	.LBE859:
 2914               	.LSM320:
 2915 043a 81E0      		ldi r24,lo8(1)
 2916 043c 60E0      		ldi r22,lo8(0)
 2917 043e 0E94 0000 		call GPIOCreate
 2918 0442 9093 0000 		sts aMug+20+1,r25
 2919 0446 8093 0000 		sts aMug+20,r24
 2920               	.LSM321:
 2921 044a 64E0      		ldi r22,lo8(4)
 2922 044c 0E94 0000 		call GPIOSetDirection
 2923               	.LBB869:
 2924               	.LSM322:
 2925 0450 0FB7      		in r16,__SREG__
 2926               	.LVL157:
 2927               	.LBB870:
 2928               	.LBB871:
 2929               	.LSM323:
 2930               	/* #APP */
 2931               	 ;  50 "/opt/local/lib/gcc/avr/4.5.2/../../../../avr/include/util/atomic.h" 1
 2932 0452 F894      		cli
 2933               	 ;  0 "" 2
 2934               	.LVL158:
 2935               	/* #NOAPP */
 2936               	.LBE871:
 2937               	.LBE870:
 2938               	.LBB872:
 2939               	.LSM324:
 2940 0454 E090 0000 		lds r14,aMug+12
 2941               	.LVL159:
 2942 0458 80E0      		ldi r24,lo8(0)
 2943 045a 0E94 0000 		call mugSwitchConsoleTo
 2944               	.LVL160:
 2945               	.LBB873:
 2946               	.LBB874:
 2947               	.LBB875:
 2948               	.LBB876:
 2949               	.LSM325:
 2950 045e E0E1      		ldi r30,lo8(10000)
 2951 0460 F7E2      		ldi r31,hi8(10000)
 2952               	/* #APP */
 2953               	 ;  105 "/opt/local/lib/gcc/avr/4.5.2/../../../../avr/include/util/delay_basic.h" 1
 2954 0462 3197      		1: sbiw r30,1
 2955 0464 01F4      		brne 1b
 2956               	 ;  0 "" 2
 2957               	.LVL161:
 2958               	/* #NOAPP */
 2959               	.LBE876:
 2960               	.LBE875:
 2961               	.LBE874:
 2962               	.LBE873:
 2963               	.LSM326:
 2964 0466 00D0      		rcall .
 2965 0468 00D0      		rcall .
 2966 046a 0F92      		push __tmp_reg__
 2967 046c EDB7      		in r30,__SP_L__
 2968 046e FEB7      		in r31,__SP_H__
 2969 0470 3196      		adiw r30,1
 2970 0472 2091 0000 		lds r18,aMug+2
 2971 0476 3091 0000 		lds r19,aMug+2+1
 2972 047a ADB7      		in r26,__SP_L__
 2973 047c BEB7      		in r27,__SP_H__
 2974 047e 1296      		adiw r26,1+1
 2975 0480 3C93      		st X,r19
 2976 0482 2E93      		st -X,r18
 2977 0484 1197      		sbiw r26,1
 2978 0486 88E0      		ldi r24,lo8(8)
 2979 0488 8283      		std Z+2,r24
 2980 048a 20E0      		ldi r18,lo8(.LC13)
 2981 048c 30E0      		ldi r19,hi8(.LC13)
 2982 048e 3483      		std Z+4,r19
 2983 0490 2383      		std Z+3,r18
 2984 0492 0E94 0000 		call OLEDConstructMessage
 2985 0496 0F90      		pop __tmp_reg__
 2986 0498 0F90      		pop __tmp_reg__
 2987 049a 0F90      		pop __tmp_reg__
 2988 049c 0F90      		pop __tmp_reg__
 2989 049e 0F90      		pop __tmp_reg__
 2990 04a0 8823      		tst r24
 2991 04a2 01F0      		breq .L109
 2992               	.LSM327:
 2993 04a4 8091 0000 		lds r24,aMug+2
 2994 04a8 9091 0000 		lds r25,aMug+2+1
 2995 04ac 0E94 0000 		call OLEDSendMessage
 2996               	.L109:
 2997               	.LSM328:
 2998 04b0 8E2D      		mov r24,r14
 2999 04b2 0E94 0000 		call mugSwitchConsoleTo
 3000               	.LVL162:
 3001               	.LBE872:
 3002               	.LBB877:
 3003               	.LBB878:
 3004               	.LSM329:
 3005 04b6 0FBF      		out __SREG__,r16
 3006               	.LSM330:
 3007               	.LBE878:
 3008               	.LBE877:
 3009               	.LBE869:
 3010               	.LSM331:
 3011 04b8 00D0      		rcall .
 3012 04ba 0F92      		push __tmp_reg__
 3013 04bc 8091 0000 		lds r24,aMug+2
 3014 04c0 9091 0000 		lds r25,aMug+2+1
 3015 04c4 EDB7      		in r30,__SP_L__
 3016 04c6 FEB7      		in r31,__SP_H__
 3017 04c8 9283      		std Z+2,r25
 3018 04ca 8183      		std Z+1,r24
 3019 04cc 8AE0      		ldi r24,lo8(10)
 3020 04ce 8383      		std Z+3,r24
 3021 04d0 0E94 0000 		call OLEDConstructMessage
 3022               	.LSM332:
 3023 04d4 0F90      		pop __tmp_reg__
 3024 04d6 0F90      		pop __tmp_reg__
 3025 04d8 0F90      		pop __tmp_reg__
 3026 04da 8091 0000 		lds r24,aMug+2
 3027 04de 9091 0000 		lds r25,aMug+2+1
 3028 04e2 0E94 0000 		call OLEDSendMessage
 3029               	.LSM333:
 3030 04e6 0E94 0000 		call updateBatteryStatus
 3031               	.LSM334:
 3032 04ea 81E0      		ldi r24,lo8(1)
 3033 04ec 8093 0000 		sts aMug+10,r24
 3034               	.LBB879:
 3035 04f0 8FB7      		in r24,__SREG__
 3036               	.LVL163:
 3037               	.LBB880:
 3038               	.LBB881:
 3039               	.LSM335:
 3040               	/* #APP */
 3041               	 ;  50 "/opt/local/lib/gcc/avr/4.5.2/../../../../avr/include/util/atomic.h" 1
 3042 04f2 F894      		cli
 3043               	 ;  0 "" 2
 3044               	.LVL164:
 3045               	/* #NOAPP */
 3046               	.LBE881:
 3047               	.LBE880:
 3048               	.LSM336:
 3049 04f4 1092 0000 		sts activityTimer,__zero_reg__
 3050 04f8 1092 0000 		sts activityTimer+1,__zero_reg__
 3051 04fc 1092 0000 		sts activityTimer+2,__zero_reg__
 3052 0500 1092 0000 		sts activityTimer+3,__zero_reg__
 3053               	.LVL165:
 3054               	.LBB882:
 3055               	.LBB883:
 3056               	.LSM337:
 3057 0504 8FBF      		out __SREG__,r24
 3058               	.LSM338:
 3059               	.LBE883:
 3060               	.LBE882:
 3061               	.LBE879:
 3062               	.LBB884:
 3063               	.LBB885:
 3064               	.LSM339:
 3065 0506 81E0      		ldi r24,lo8(1)
 3066               	.LVL166:
 3067 0508 62E0      		ldi r22,lo8(2)
 3068 050a 0E94 0000 		call GPIOCreate
 3069               	.LVL167:
 3070 050e 9093 0000 		sts aMug+18+1,r25
 3071 0512 8093 0000 		sts aMug+18,r24
 3072               	.LSM340:
 3073 0516 62E0      		ldi r22,lo8(2)
 3074 0518 0E94 0000 		call GPIOSetDirection
 3075               	.LSM341:
 3076 051c 8091 0000 		lds r24,aMug+18
 3077 0520 9091 0000 		lds r25,aMug+18+1
 3078 0524 60E0      		ldi r22,lo8(gs(__button_event_handler))
 3079 0526 70E0      		ldi r23,hi8(gs(__button_event_handler))
 3080 0528 40E0      		ldi r20,lo8(0)
 3081 052a 50E0      		ldi r21,hi8(0)
 3082 052c 0E94 0000 		call buttonCreate
 3083 0530 9093 0000 		sts aMug+22+1,r25
 3084 0534 8093 0000 		sts aMug+22,r24
 3085               	.LSM342:
 3086 0538 64E0      		ldi r22,lo8(4)
 3087 053a 0E94 0000 		call buttonUpState
 3088               	.LSM343:
 3089 053e 8091 0000 		lds r24,aMug+22
 3090 0542 9091 0000 		lds r25,aMug+22+1
 3091 0546 6AE0      		ldi r22,lo8(10)
 3092 0548 70E0      		ldi r23,hi8(10)
 3093 054a 48EE      		ldi r20,lo8(1000)
 3094 054c 53E0      		ldi r21,hi8(1000)
 3095 054e 0E94 0000 		call buttonSetShortPressDelay
 3096               	.LSM344:
 3097 0552 8091 0000 		lds r24,aMug+22
 3098 0556 9091 0000 		lds r25,aMug+22+1
 3099 055a 68EB      		ldi r22,lo8(3000)
 3100 055c 7BE0      		ldi r23,hi8(3000)
 3101 055e 40E0      		ldi r20,lo8(0)
 3102 0560 50E0      		ldi r21,hi8(0)
 3103 0562 0E94 0000 		call buttonSetLongPressDelay
 3104               	.LSM345:
 3105 0566 8091 0000 		lds r24,aMug+22
 3106 056a 9091 0000 		lds r25,aMug+22+1
 3107 056e 63E0      		ldi r22,lo8(3)
 3108 0570 0E94 0000 		call buttonListenForEvents
 3109               	.LBE885:
 3110               	.LBE884:
 3111               	.LSM346:
 3112 0574 8DE0      		ldi r24,lo8(13)
 3113 0576 0E94 0000 		call mugSetCurrentState
 3114               	.LBB886:
 3115               	.LBB887:
 3116               	.LBB888:
 3117               	.LSM347:
 3118 057a 8E01      		movw r16,r28
 3119               	.LVL168:
 3120 057c 0F5D      		subi r16,lo8(-(33))
 3121 057e 1F4F      		sbci r17,hi8(-(33))
 3122               	.LBE888:
 3123               	.LBE887:
 3124               	.LBE886:
 3125               	.LBB929:
 3126               	.LBB930:
 3127               	.LBB931:
 3128               	.LBB932:
 3129               	.LBB933:
 3130               	.LBB934:
 3131               	.LBB935:
 3132               	.LBB936:
 3133               	.LSM348:
 3134 0580 90E0      		ldi r25,lo8(.LC18)
 3135 0582 292E      		mov r2,r25
 3136 0584 90E0      		ldi r25,hi8(.LC18)
 3137 0586 392E      		mov r3,r25
 3138               	.LVL169:
 3139               	.L250:
 3140               	.LBE936:
 3141               	.LBE935:
 3142               	.LBE934:
 3143               	.LBE933:
 3144               	.LBE932:
 3145               	.LBE931:
 3146               	.LBE930:
 3147               	.LBE929:
 3148               	.LSM349:
 3149 0588 8091 0000 		lds r24,aMug
 3150 058c 9091 0000 		lds r25,aMug+1
 3151 0590 0E94 0000 		call XBeeHasData
 3152 0594 8823      		tst r24
 3153 0596 01F0      		breq .L111
 3154               	.LBB959:
 3155               	.LSM350:
 3156 0598 8091 0000 		lds r24,aMug
 3157 059c 9091 0000 		lds r25,aMug+1
 3158 05a0 0E94 0000 		call XBeeRetrieveMessage
 3159 05a4 BC01      		movw r22,r24
 3160               	.LVL170:
 3161               	.LSM351:
 3162 05a6 FC01      		movw r30,r24
 3163 05a8 0190      		ld __tmp_reg__,Z+
 3164 05aa 0020      		tst __tmp_reg__
 3165 05ac 01F4      		brne .-6
 3166 05ae 3197      		sbiw r30,1
 3167 05b0 E81B      		sub r30,r24
 3168 05b2 F90B      		sbc r31,r25
 3169 05b4 E530      		cpi r30,5
 3170 05b6 F105      		cpc r31,__zero_reg__
 3171 05b8 00F0      		brlo .L111
 3172               	.LSM352:
 3173 05ba 80E4      		ldi r24,lo8(64)
 3174 05bc A0E0      		ldi r26,lo8(aMug+94)
 3175 05be B0E0      		ldi r27,hi8(aMug+94)
 3176 05c0 1D92      		st X+,__zero_reg__
 3177 05c2 8A95      	        dec r24
 3178 05c4 01F4      		brne .-6
 3179               	.LSM353:
 3180 05c6 80E0      		ldi r24,lo8(aMug+94)
 3181 05c8 90E0      		ldi r25,hi8(aMug+94)
 3182 05ca 40E4      		ldi r20,lo8(64)
 3183 05cc 50E0      		ldi r21,hi8(64)
 3184 05ce 0E94 0000 		call strncpy
 3185               	.LVL171:
 3186               	.LSM354:
 3187 05d2 81E0      		ldi r24,lo8(1)
 3188 05d4 8093 0000 		sts aMug+11,r24
 3189               	.L111:
 3190               	.LBE959:
 3191               	.LSM355:
 3192 05d8 8091 0000 		lds r24,aMug+9
 3193 05dc 8830      		cpi r24,lo8(8)
 3194 05de 01F4      		brne .+2
 3195 05e0 00C0      		rjmp .L117
 3196 05e2 8930      		cpi r24,lo8(9)
 3197 05e4 00F4      		brsh .L122
 3198 05e6 8430      		cpi r24,lo8(4)
 3199 05e8 01F4      		brne .+2
 3200 05ea 00C0      		rjmp .L114
 3201 05ec 8530      		cpi r24,lo8(5)
 3202 05ee 00F4      		brsh .L123
 3203 05f0 8330      		cpi r24,lo8(3)
 3204 05f2 01F0      		breq .+2
 3205 05f4 00C0      		rjmp .L112
 3206 05f6 00C0      		rjmp .L113
 3207               	.L123:
 3208 05f8 8530      		cpi r24,lo8(5)
 3209 05fa 01F4      		brne .+2
 3210 05fc 00C0      		rjmp .L248
 3211 05fe 8630      		cpi r24,lo8(6)
 3212 0600 01F0      		breq .+2
 3213 0602 00C0      		rjmp .L112
 3214 0604 00C0      		rjmp .L268
 3215               	.L122:
 3216 0606 8B30      		cpi r24,lo8(11)
 3217 0608 01F0      		breq .L119
 3218 060a 8C30      		cpi r24,lo8(12)
 3219 060c 00F4      		brsh .L124
 3220 060e 8930      		cpi r24,lo8(9)
 3221 0610 01F0      		breq .L113
 3222 0612 8A30      		cpi r24,lo8(10)
 3223 0614 01F0      		breq .+2
 3224 0616 00C0      		rjmp .L112
 3225 0618 00C0      		rjmp .L269
 3226               	.L124:
 3227 061a 8C30      		cpi r24,lo8(12)
 3228 061c 01F4      		brne .+2
 3229 061e 00C0      		rjmp .L120
 3230 0620 8E30      		cpi r24,lo8(14)
 3231 0622 01F0      		breq .+2
 3232 0624 00C0      		rjmp .L112
 3233 0626 00C0      		rjmp .L270
 3234               	.L269:
 3235               	.LSM356:
 3236 0628 0E94 0000 		call mugHandleLongButtonPress
 3237 062c 00C0      		rjmp .L258
 3238               	.L119:
 3239               	.LBB960:
 3240               	.LSM357:
 3241 062e EFB6      		in r14,__SREG__
 3242               	.LVL172:
 3243               	.LBB961:
 3244               	.LBB962:
 3245               	.LSM358:
 3246               	/* #APP */
 3247               	 ;  50 "/opt/local/lib/gcc/avr/4.5.2/../../../../avr/include/util/atomic.h" 1
 3248 0630 F894      		cli
 3249               	 ;  0 "" 2
 3250               	.LVL173:
 3251               	/* #NOAPP */
 3252               	.LBE962:
 3253               	.LBE961:
 3254               	.LSM359:
 3255 0632 0E94 0000 		call mugHandleShortButtonPress
 3256 0636 00C0      		rjmp .L260
 3257               	.LVL174:
 3258               	.L113:
 3259               	.LBE960:
 3260               	.LBB963:
 3261               	.LSM360:
 3262 0638 EFB6      		in r14,__SREG__
 3263               	.LVL175:
 3264               	.LBB924:
 3265               	.LBB925:
 3266               	.LSM361:
 3267               	/* #APP */
 3268               	 ;  50 "/opt/local/lib/gcc/avr/4.5.2/../../../../avr/include/util/atomic.h" 1
 3269 063a F894      		cli
 3270               	 ;  0 "" 2
 3271               	.LVL176:
 3272               	/* #NOAPP */
 3273               	.LBE925:
 3274               	.LBE924:
 3275               	.LBB926:
 3276               	.LBB923:
 3277               	.LSM362:
 3278 063c 8091 0000 		lds r24,aMug+28
 3279 0640 8823      		tst r24
 3280 0642 01F4      		brne .+2
 3281 0644 00C0      		rjmp .L125
 3282               	.LBB889:
 3283               	.LSM363:
 3284 0646 CFB6      		in r12,__SREG__
 3285               	.LVL177:
 3286               	.LBB890:
 3287               	.LBB891:
 3288               	.LSM364:
 3289               	/* #APP */
 3290               	 ;  50 "/opt/local/lib/gcc/avr/4.5.2/../../../../avr/include/util/atomic.h" 1
 3291 0648 F894      		cli
 3292               	 ;  0 "" 2
 3293               	.LVL178:
 3294               	/* #NOAPP */
 3295               	.LBE891:
 3296               	.LBE890:
 3297               	.LSM365:
 3298 064a EDB7      		in r30,__SP_L__
 3299 064c FEB7      		in r31,__SP_H__
 3300 064e 3797      		sbiw r30,7
 3301 0650 0FB6      		in __tmp_reg__,__SREG__
 3302 0652 F894      		cli
 3303 0654 FEBF      		out __SP_H__,r31
 3304 0656 0FBE      		out __SREG__,__tmp_reg__
 3305 0658 EDBF      		out __SP_L__,r30
 3306 065a 3196      		adiw r30,1
 3307 065c 8091 0000 		lds r24,aMug+2
 3308 0660 9091 0000 		lds r25,aMug+2+1
 3309 0664 ADB7      		in r26,__SP_L__
 3310 0666 BEB7      		in r27,__SP_H__
 3311 0668 1296      		adiw r26,1+1
 3312 066a 9C93      		st X,r25
 3313 066c 8E93      		st -X,r24
 3314 066e 1197      		sbiw r26,1
 3315 0670 81E0      		ldi r24,lo8(1)
 3316 0672 8283      		std Z+2,r24
 3317 0674 83E0      		ldi r24,lo8(3)
 3318 0676 90E0      		ldi r25,hi8(3)
 3319 0678 9483      		std Z+4,r25
 3320 067a 8383      		std Z+3,r24
 3321 067c 81E0      		ldi r24,lo8(1)
 3322 067e 90E0      		ldi r25,hi8(1)
 3323 0680 9683      		std Z+6,r25
 3324 0682 8583      		std Z+5,r24
 3325 0684 0E94 0000 		call OLEDConstructMessage
 3326 0688 EDB7      		in r30,__SP_L__
 3327 068a FEB7      		in r31,__SP_H__
 3328 068c 3796      		adiw r30,7
 3329 068e 0FB6      		in __tmp_reg__,__SREG__
 3330 0690 F894      		cli
 3331 0692 FEBF      		out __SP_H__,r31
 3332 0694 0FBE      		out __SREG__,__tmp_reg__
 3333 0696 EDBF      		out __SP_L__,r30
 3334 0698 8823      		tst r24
 3335 069a 01F0      		breq .L126
 3336               	.LBB892:
 3337 069c A090 0000 		lds r10,aMug+12
 3338               	.LVL179:
 3339 06a0 80E0      		ldi r24,lo8(0)
 3340 06a2 0E94 0000 		call mugSwitchConsoleTo
 3341               	.LVL180:
 3342               	.LBB893:
 3343               	.LBB894:
 3344               	.LBB895:
 3345               	.LBB896:
 3346               	.LSM366:
 3347 06a6 E0E1      		ldi r30,lo8(10000)
 3348 06a8 F7E2      		ldi r31,hi8(10000)
 3349               	/* #APP */
 3350               	 ;  105 "/opt/local/lib/gcc/avr/4.5.2/../../../../avr/include/util/delay_basic.h" 1
 3351 06aa 3197      		1: sbiw r30,1
 3352 06ac 01F4      		brne 1b
 3353               	 ;  0 "" 2
 3354               	.LVL181:
 3355               	/* #NOAPP */
 3356               	.LBE896:
 3357               	.LBE895:
 3358               	.LBE894:
 3359               	.LBE893:
 3360               	.LSM367:
 3361 06ae 8091 0000 		lds r24,aMug+2
 3362 06b2 9091 0000 		lds r25,aMug+2+1
 3363 06b6 0E94 0000 		call OLEDSendMessage
 3364 06ba 8A2D      		mov r24,r10
 3365 06bc 0E94 0000 		call mugSwitchConsoleTo
 3366               	.LVL182:
 3367               	.L126:
 3368               	.LBE892:
 3369               	.LBB897:
 3370               	.LBB898:
 3371               	.LSM368:
 3372 06c0 CFBE      		out __SREG__,r12
 3373               	.LSM369:
 3374               	.LBE898:
 3375               	.LBE897:
 3376               	.LBE889:
 3377               	.LSM370:
 3378 06c2 2DB7      		in r18,__SP_L__
 3379 06c4 3EB7      		in r19,__SP_H__
 3380 06c6 2A50      		subi r18,lo8(-(-10))
 3381 06c8 3040      		sbci r19,hi8(-(-10))
 3382 06ca 0FB6      		in __tmp_reg__,__SREG__
 3383 06cc F894      		cli
 3384 06ce 3EBF      		out __SP_H__,r19
 3385 06d0 0FBE      		out __SREG__,__tmp_reg__
 3386 06d2 2DBF      		out __SP_L__,r18
 3387 06d4 EDB7      		in r30,__SP_L__
 3388 06d6 FEB7      		in r31,__SP_H__
 3389 06d8 3196      		adiw r30,1
 3390 06da ADB7      		in r26,__SP_L__
 3391 06dc BEB7      		in r27,__SP_H__
 3392 06de 1296      		adiw r26,1+1
 3393 06e0 1C93      		st X,r17
 3394 06e2 0E93      		st -X,r16
 3395 06e4 1197      		sbiw r26,1
 3396 06e6 80E8      		ldi r24,lo8(128)
 3397 06e8 90E0      		ldi r25,hi8(128)
 3398 06ea 9383      		std Z+3,r25
 3399 06ec 8283      		std Z+2,r24
 3400 06ee 20E0      		ldi r18,lo8(.LC14)
 3401 06f0 30E0      		ldi r19,hi8(.LC14)
 3402 06f2 3583      		std Z+5,r19
 3403 06f4 2483      		std Z+4,r18
 3404 06f6 80E0      		ldi r24,lo8(aMug+158)
 3405 06f8 90E0      		ldi r25,hi8(aMug+158)
 3406 06fa 9783      		std Z+7,r25
 3407 06fc 8683      		std Z+6,r24
 3408 06fe A0E0      		ldi r26,lo8(aMug+30)
 3409 0700 B0E0      		ldi r27,hi8(aMug+30)
 3410 0702 B187      		std Z+9,r27
 3411 0704 A087      		std Z+8,r26
 3412 0706 0E94 0000 		call snprintf
 3413               	.LVL183:
 3414 070a EDB7      		in r30,__SP_L__
 3415 070c FEB7      		in r31,__SP_H__
 3416 070e 3A96      		adiw r30,10
 3417 0710 0FB6      		in __tmp_reg__,__SREG__
 3418 0712 F894      		cli
 3419 0714 FEBF      		out __SP_H__,r31
 3420 0716 0FBE      		out __SREG__,__tmp_reg__
 3421 0718 EDBF      		out __SP_L__,r30
 3422               	.LSM371:
 3423 071a 40E0      		ldi r20,lo8(0)
 3424               	.LSM372:
 3425 071c 30E0      		ldi r19,lo8(0)
 3426 071e 21E0      		ldi r18,lo8(1)
 3427 0720 00C0      		rjmp .L127
 3428               	.LVL184:
 3429               	.L131:
 3430               	.LSM373:
 3431 0722 3231      		cpi r19,lo8(18)
 3432 0724 01F4      		brne .L128
 3433               	.LSM374:
 3434 0726 4423      		tst r20
 3435 0728 01F0      		breq .L129
 3436               	.LSM375:
 3437 072a F801      		movw r30,r16
 3438 072c E40F      		add r30,r20
 3439 072e F11D      		adc r31,__zero_reg__
 3440 0730 2AE0      		ldi r18,lo8(10)
 3441               	.LVL185:
 3442 0732 2083      		st Z,r18
 3443               	.LSM376:
 3444 0734 242F      		mov r18,r20
 3445 0736 2F5F      		subi r18,lo8(-(1))
 3446               	.LVL186:
 3447               	.LSM377:
 3448 0738 40E0      		ldi r20,lo8(0)
 3449 073a 00C0      		rjmp .L253
 3450               	.LVL187:
 3451               	.L129:
 3452               	.LSM378:
 3453 073c 800F      		add r24,r16
 3454 073e 911F      		adc r25,r17
 3455               	.LVL188:
 3456 0740 EAE0      		ldi r30,lo8(10)
 3457 0742 DC01      		movw r26,r24
 3458 0744 EC93      		st X,r30
 3459               	.LVL189:
 3460               	.L253:
 3461               	.LSM379:
 3462 0746 30E0      		ldi r19,lo8(0)
 3463               	.LVL190:
 3464 0748 00C0      		rjmp .L130
 3465               	.LVL191:
 3466               	.L128:
 3467               	.LSM380:
 3468 074a 800F      		add r24,r16
 3469 074c 911F      		adc r25,r17
 3470 074e DC01      		movw r26,r24
 3471 0750 8C91      		ld r24,X
 3472 0752 8032      		cpi r24,lo8(32)
 3473 0754 01F4      		brne .L130
 3474               	.LSM381:
 3475 0756 422F      		mov r20,r18
 3476               	.LVL192:
 3477               	.L130:
 3478               	.LSM382:
 3479 0758 2F5F      		subi r18,lo8(-(1))
 3480               	.LVL193:
 3481 075a 3F5F      		subi r19,lo8(-(1))
 3482               	.LVL194:
 3483               	.L127:
 3484 075c 822F      		mov r24,r18
 3485 075e 90E0      		ldi r25,lo8(0)
 3486 0760 F801      		movw r30,r16
 3487 0762 0190      		ld __tmp_reg__,Z+
 3488 0764 0020      		tst __tmp_reg__
 3489 0766 01F4      		brne .-6
 3490 0768 3197      		sbiw r30,1
 3491 076a E01B      		sub r30,r16
 3492 076c F10B      		sbc r31,r17
 3493 076e 8E17      		cp r24,r30
 3494 0770 9F07      		cpc r25,r31
 3495 0772 00F0      		brlo .L131
 3496               	.LSM383:
 3497 0774 8091 0000 		lds r24,aMug
 3498 0778 9091 0000 		lds r25,aMug+1
 3499 077c B801      		movw r22,r16
 3500 077e 0E94 0000 		call XBeeSendMessageNoBlock
 3501               	.LVL195:
 3502               	.LSM384:
 3503 0782 8091 0000 		lds r24,aMug
 3504 0786 9091 0000 		lds r25,aMug+1
 3505 078a 6DE0      		ldi r22,lo8(13)
 3506 078c 0E94 0000 		call XBeeSendByte
 3507               	.LVL196:
 3508 0790 88E8      		ldi r24,lo8(5000)
 3509 0792 93E1      		ldi r25,hi8(5000)
 3510               	.LVL197:
 3511               	.L132:
 3512               	.LBB899:
 3513               	.LBB900:
 3514               	.LBB901:
 3515               	.LBB902:
 3516               	.LSM385:
 3517 0794 E8EC      		ldi r30,lo8(200)
 3518 0796 F0E0      		ldi r31,hi8(200)
 3519               	/* #APP */
 3520               	 ;  105 "/opt/local/lib/gcc/avr/4.5.2/../../../../avr/include/util/delay_basic.h" 1
 3521 0798 3197      		1: sbiw r30,1
 3522 079a 01F4      		brne 1b
 3523               	 ;  0 "" 2
 3524               	.LVL198:
 3525               	/* #NOAPP */
 3526 079c 0197      		sbiw r24,1
 3527               	.LBE902:
 3528               	.LBE901:
 3529               	.LSM386:
 3530 079e 01F4      		brne .L132
 3531               	.LBE900:
 3532               	.LBE899:
 3533               	.LSM387:
 3534 07a0 EDB7      		in r30,__SP_L__
 3535 07a2 FEB7      		in r31,__SP_H__
 3536 07a4 3897      		sbiw r30,8
 3537 07a6 0FB6      		in __tmp_reg__,__SREG__
 3538 07a8 F894      		cli
 3539 07aa FEBF      		out __SP_H__,r31
 3540 07ac 0FBE      		out __SREG__,__tmp_reg__
 3541 07ae EDBF      		out __SP_L__,r30
 3542 07b0 3196      		adiw r30,1
 3543 07b2 ADB7      		in r26,__SP_L__
 3544 07b4 BEB7      		in r27,__SP_H__
 3545 07b6 1296      		adiw r26,1+1
 3546 07b8 1C93      		st X,r17
 3547 07ba 0E93      		st -X,r16
 3548 07bc 1197      		sbiw r26,1
 3549 07be 80E8      		ldi r24,lo8(128)
 3550 07c0 90E0      		ldi r25,hi8(128)
 3551 07c2 9383      		std Z+3,r25
 3552 07c4 8283      		std Z+2,r24
 3553 07c6 20E0      		ldi r18,lo8(.LC15)
 3554 07c8 30E0      		ldi r19,hi8(.LC15)
 3555 07ca 3583      		std Z+5,r19
 3556 07cc 2483      		std Z+4,r18
 3557 07ce 80E0      		ldi r24,lo8(aMug+30)
 3558 07d0 90E0      		ldi r25,hi8(aMug+30)
 3559 07d2 9783      		std Z+7,r25
 3560 07d4 8683      		std Z+6,r24
 3561 07d6 0E94 0000 		call snprintf
 3562               	.LVL199:
 3563 07da ADB7      		in r26,__SP_L__
 3564 07dc BEB7      		in r27,__SP_H__
 3565 07de 1896      		adiw r26,8
 3566 07e0 0FB6      		in __tmp_reg__,__SREG__
 3567 07e2 F894      		cli
 3568 07e4 BEBF      		out __SP_H__,r27
 3569 07e6 0FBE      		out __SREG__,__tmp_reg__
 3570 07e8 ADBF      		out __SP_L__,r26
 3571               	.LSM388:
 3572 07ea 40E0      		ldi r20,lo8(0)
 3573               	.LSM389:
 3574 07ec 30E0      		ldi r19,lo8(0)
 3575 07ee 21E0      		ldi r18,lo8(1)
 3576 07f0 00C0      		rjmp .L133
 3577               	.LVL200:
 3578               	.L137:
 3579               	.LSM390:
 3580 07f2 3231      		cpi r19,lo8(18)
 3581 07f4 00F0      		brlo .L134
 3582               	.LSM391:
 3583 07f6 4423      		tst r20
 3584 07f8 01F0      		breq .L135
 3585               	.LSM392:
 3586 07fa F801      		movw r30,r16
 3587 07fc E40F      		add r30,r20
 3588 07fe F11D      		adc r31,__zero_reg__
 3589 0800 BAE0      		ldi r27,lo8(10)
 3590 0802 B083      		st Z,r27
 3591               	.LSM393:
 3592 0804 242F      		mov r18,r20
 3593               	.LVL201:
 3594 0806 2F5F      		subi r18,lo8(-(1))
 3595               	.LVL202:
 3596               	.LSM394:
 3597 0808 40E0      		ldi r20,lo8(0)
 3598 080a 00C0      		rjmp .L254
 3599               	.LVL203:
 3600               	.L135:
 3601               	.LSM395:
 3602 080c 800F      		add r24,r16
 3603 080e 911F      		adc r25,r17
 3604               	.LVL204:
 3605 0810 3AE0      		ldi r19,lo8(10)
 3606               	.LVL205:
 3607 0812 FC01      		movw r30,r24
 3608 0814 3083      		st Z,r19
 3609               	.LVL206:
 3610               	.L254:
 3611               	.LSM396:
 3612 0816 30E0      		ldi r19,lo8(0)
 3613 0818 00C0      		rjmp .L136
 3614               	.LVL207:
 3615               	.L134:
 3616               	.LSM397:
 3617 081a 800F      		add r24,r16
 3618 081c 911F      		adc r25,r17
 3619 081e DC01      		movw r26,r24
 3620 0820 8C91      		ld r24,X
 3621 0822 8032      		cpi r24,lo8(32)
 3622 0824 01F4      		brne .L136
 3623               	.LSM398:
 3624 0826 422F      		mov r20,r18
 3625               	.LVL208:
 3626               	.L136:
 3627               	.LSM399:
 3628 0828 2F5F      		subi r18,lo8(-(1))
 3629               	.LVL209:
 3630 082a 3F5F      		subi r19,lo8(-(1))
 3631               	.LVL210:
 3632               	.L133:
 3633 082c F801      		movw r30,r16
 3634 082e 0190      		ld __tmp_reg__,Z+
 3635 0830 0020      		tst __tmp_reg__
 3636 0832 01F4      		brne .-6
 3637 0834 3197      		sbiw r30,1
 3638 0836 E01B      		sub r30,r16
 3639 0838 F10B      		sbc r31,r17
 3640 083a 822F      		mov r24,r18
 3641 083c 90E0      		ldi r25,lo8(0)
 3642 083e 8E17      		cp r24,r30
 3643 0840 9F07      		cpc r25,r31
 3644 0842 00F0      		brlo .L137
 3645               	.LBB903:
 3646               	.LSM400:
 3647 0844 CFB6      		in r12,__SREG__
 3648               	.LVL211:
 3649               	.LBB904:
 3650               	.LBB905:
 3651               	.LSM401:
 3652               	/* #APP */
 3653               	 ;  50 "/opt/local/lib/gcc/avr/4.5.2/../../../../avr/include/util/atomic.h" 1
 3654 0846 F894      		cli
 3655               	 ;  0 "" 2
 3656               	.LVL212:
 3657               	/* #NOAPP */
 3658               	.LBE905:
 3659               	.LBE904:
 3660               	.LBB906:
 3661               	.LSM402:
 3662 0848 A090 0000 		lds r10,aMug+12
 3663               	.LVL213:
 3664 084c 80E0      		ldi r24,lo8(0)
 3665 084e 0E94 0000 		call mugSwitchConsoleTo
 3666               	.LVL214:
 3667               	.LBB907:
 3668               	.LBB908:
 3669               	.LBB909:
 3670               	.LBB910:
 3671               	.LSM403:
 3672 0852 80E1      		ldi r24,lo8(10000)
 3673 0854 97E2      		ldi r25,hi8(10000)
 3674               	/* #APP */
 3675               	 ;  105 "/opt/local/lib/gcc/avr/4.5.2/../../../../avr/include/util/delay_basic.h" 1
 3676 0856 0197      		1: sbiw r24,1
 3677 0858 01F4      		brne 1b
 3678               	 ;  0 "" 2
 3679               	.LVL215:
 3680               	/* #NOAPP */
 3681               	.LBE910:
 3682               	.LBE909:
 3683               	.LBE908:
 3684               	.LBE907:
 3685               	.LSM404:
 3686 085a 00D0      		rcall .
 3687 085c 00D0      		rcall .
 3688 085e 0F92      		push __tmp_reg__
 3689 0860 EDB7      		in r30,__SP_L__
 3690 0862 FEB7      		in r31,__SP_H__
 3691 0864 3196      		adiw r30,1
 3692 0866 2091 0000 		lds r18,aMug+2
 3693 086a 3091 0000 		lds r19,aMug+2+1
 3694 086e ADB7      		in r26,__SP_L__
 3695 0870 BEB7      		in r27,__SP_H__
 3696 0872 1296      		adiw r26,1+1
 3697 0874 3C93      		st X,r19
 3698 0876 2E93      		st -X,r18
 3699 0878 1197      		sbiw r26,1
 3700 087a 88E0      		ldi r24,lo8(8)
 3701 087c 8283      		std Z+2,r24
 3702 087e 1483      		std Z+4,r17
 3703 0880 0383      		std Z+3,r16
 3704 0882 0E94 0000 		call OLEDConstructMessage
 3705 0886 0F90      		pop __tmp_reg__
 3706 0888 0F90      		pop __tmp_reg__
 3707 088a 0F90      		pop __tmp_reg__
 3708 088c 0F90      		pop __tmp_reg__
 3709 088e 0F90      		pop __tmp_reg__
 3710 0890 8823      		tst r24
 3711 0892 01F0      		breq .L138
 3712 0894 8091 0000 		lds r24,aMug+2
 3713 0898 9091 0000 		lds r25,aMug+2+1
 3714 089c 0E94 0000 		call OLEDSendMessage
 3715               	.L138:
 3716 08a0 8A2D      		mov r24,r10
 3717 08a2 0E94 0000 		call mugSwitchConsoleTo
 3718               	.LVL216:
 3719               	.LBE906:
 3720               	.LBB911:
 3721               	.LBB912:
 3722               	.LSM405:
 3723 08a6 CFBE      		out __SREG__,r12
 3724               	.LSM406:
 3725               	.LBE912:
 3726               	.LBE911:
 3727               	.LBE903:
 3728               	.LBB913:
 3729               	.LSM407:
 3730 08a8 CFB6      		in r12,__SREG__
 3731               	.LVL217:
 3732               	.LBB914:
 3733               	.LBB915:
 3734               	.LSM408:
 3735               	/* #APP */
 3736               	 ;  50 "/opt/local/lib/gcc/avr/4.5.2/../../../../avr/include/util/atomic.h" 1
 3737 08aa F894      		cli
 3738               	 ;  0 "" 2
 3739               	.LVL218:
 3740               	/* #NOAPP */
 3741               	.LBE915:
 3742               	.LBE914:
 3743               	.LSM409:
 3744 08ac EDB7      		in r30,__SP_L__
 3745 08ae FEB7      		in r31,__SP_H__
 3746 08b0 3797      		sbiw r30,7
 3747 08b2 0FB6      		in __tmp_reg__,__SREG__
 3748 08b4 F894      		cli
 3749 08b6 FEBF      		out __SP_H__,r31
 3750 08b8 0FBE      		out __SREG__,__tmp_reg__
 3751 08ba EDBF      		out __SP_L__,r30
 3752 08bc 3196      		adiw r30,1
 3753 08be 8091 0000 		lds r24,aMug+2
 3754 08c2 9091 0000 		lds r25,aMug+2+1
 3755 08c6 ADB7      		in r26,__SP_L__
 3756 08c8 BEB7      		in r27,__SP_H__
 3757 08ca 1296      		adiw r26,1+1
 3758 08cc 9C93      		st X,r25
 3759 08ce 8E93      		st -X,r24
 3760 08d0 1197      		sbiw r26,1
 3761 08d2 81E0      		ldi r24,lo8(1)
 3762 08d4 8283      		std Z+2,r24
 3763 08d6 83E0      		ldi r24,lo8(3)
 3764 08d8 90E0      		ldi r25,hi8(3)
 3765 08da 9483      		std Z+4,r25
 3766 08dc 8383      		std Z+3,r24
 3767 08de 1682      		std Z+6,__zero_reg__
 3768 08e0 1582      		std Z+5,__zero_reg__
 3769 08e2 0E94 0000 		call OLEDConstructMessage
 3770               	.LVL219:
 3771 08e6 EDB7      		in r30,__SP_L__
 3772 08e8 FEB7      		in r31,__SP_H__
 3773 08ea 3796      		adiw r30,7
 3774 08ec 0FB6      		in __tmp_reg__,__SREG__
 3775 08ee F894      		cli
 3776 08f0 FEBF      		out __SP_H__,r31
 3777 08f2 0FBE      		out __SREG__,__tmp_reg__
 3778 08f4 EDBF      		out __SP_L__,r30
 3779 08f6 8823      		tst r24
 3780 08f8 01F0      		breq .L139
 3781               	.LBB916:
 3782 08fa A090 0000 		lds r10,aMug+12
 3783               	.LVL220:
 3784 08fe 80E0      		ldi r24,lo8(0)
 3785 0900 0E94 0000 		call mugSwitchConsoleTo
 3786               	.LVL221:
 3787               	.LBB917:
 3788               	.LBB918:
 3789               	.LBB919:
 3790               	.LBB920:
 3791               	.LSM410:
 3792 0904 E0E1      		ldi r30,lo8(10000)
 3793 0906 F7E2      		ldi r31,hi8(10000)
 3794               	/* #APP */
 3795               	 ;  105 "/opt/local/lib/gcc/avr/4.5.2/../../../../avr/include/util/delay_basic.h" 1
 3796 0908 3197      		1: sbiw r30,1
 3797 090a 01F4      		brne 1b
 3798               	 ;  0 "" 2
 3799               	.LVL222:
 3800               	/* #NOAPP */
 3801               	.LBE920:
 3802               	.LBE919:
 3803               	.LBE918:
 3804               	.LBE917:
 3805               	.LSM411:
 3806 090c 8091 0000 		lds r24,aMug+2
 3807 0910 9091 0000 		lds r25,aMug+2+1
 3808 0914 0E94 0000 		call OLEDSendMessage
 3809 0918 8A2D      		mov r24,r10
 3810 091a 0E94 0000 		call mugSwitchConsoleTo
 3811               	.LVL223:
 3812               	.L139:
 3813               	.LBE916:
 3814               	.LBB921:
 3815               	.LBB922:
 3816               	.LSM412:
 3817 091e CFBE      		out __SREG__,r12
 3818               	.LSM413:
 3819               	.LVL224:
 3820               	.L125:
 3821               	.LBE922:
 3822               	.LBE921:
 3823               	.LBE913:
 3824               	.LBE923:
 3825               	.LBE926:
 3826               	.LSM414:
 3827 0920 8DE0      		ldi r24,lo8(13)
 3828               	.LVL225:
 3829               	.L260:
 3830 0922 0E94 0000 		call mugSetCurrentState
 3831               	.LVL226:
 3832               	.LBB927:
 3833               	.LBB928:
 3834               	.LSM415:
 3835 0926 EFBE      		out __SREG__,r14
 3836               	.LSM416:
 3837               	.LBE928:
 3838               	.LBE927:
 3839               	.LBE963:
 3840               	.LSM417:
 3841 0928 00C0      		rjmp .L112
 3842               	.LVL227:
 3843               	.L270:
 3844               	.LSM418:
 3845 092a 88E8      		ldi r24,lo8(5000)
 3846 092c 93E1      		ldi r25,hi8(5000)
 3847 092e 0E94 0000 		call mugPowerDown
 3848               	.LSM419:
 3849 0932 00C0      		rjmp .L112
 3850               	.L117:
 3851               	.LSM420:
 3852 0934 0E94 0000 		call updateBatteryStatus
 3853               	.LSM421:
 3854 0938 8091 0000 		lds r24,aMug+8
 3855               	.L258:
 3856 093c 0E94 0000 		call mugSetCurrentState
 3857               	.LSM422:
 3858 0940 00C0      		rjmp .L112
 3859               	.L114:
 3860               	.LSM423:
 3861 0942 88E8      		ldi r24,lo8(5000)
 3862 0944 93E1      		ldi r25,hi8(5000)
 3863 0946 0E94 0000 		call switchToConsole
 3864 094a 00C0      		rjmp .L258
 3865               	.L268:
 3866               	.LSM424:
 3867 094c 81E0      		ldi r24,lo8(1)
 3868 094e 0E94 0000 		call mugSwitchConsoleTo
 3869               	.LVL228:
 3870               	.LBB964:
 3871               	.LBB965:
 3872               	.LBB966:
 3873               	.LBB967:
 3874               	.LSM425:
 3875 0952 80E2      		ldi r24,lo8(20000)
 3876 0954 E82E      		mov r14,r24
 3877 0956 8EE4      		ldi r24,hi8(20000)
 3878 0958 F82E      		mov r15,r24
 3879 095a C701      		movw r24,r14
 3880               	/* #APP */
 3881               	 ;  105 "/opt/local/lib/gcc/avr/4.5.2/../../../../avr/include/util/delay_basic.h" 1
 3882 095c 0197      		1: sbiw r24,1
 3883 095e 01F4      		brne 1b
 3884               	 ;  0 "" 2
 3885               	.LVL229:
 3886               	/* #NOAPP */
 3887               	.LBE967:
 3888               	.LBE966:
 3889               	.LBE965:
 3890               	.LBE964:
 3891               	.LSM426:
 3892 0960 8091 0000 		lds r24,aMug+4
 3893 0964 9091 0000 		lds r25,aMug+4+1
 3894 0968 60E0      		ldi r22,lo8(.LC16)
 3895 096a 70E0      		ldi r23,hi8(.LC16)
 3896 096c 0E94 0000 		call usart_send_string
 3897               	.LVL230:
 3898               	.LBB968:
 3899               	.LBB969:
 3900               	.LBB970:
 3901               	.LBB971:
 3902               	.LSM427:
 3903 0970 C701      		movw r24,r14
 3904               	/* #APP */
 3905               	 ;  105 "/opt/local/lib/gcc/avr/4.5.2/../../../../avr/include/util/delay_basic.h" 1
 3906 0972 0197      		1: sbiw r24,1
 3907 0974 01F4      		brne 1b
 3908               	 ;  0 "" 2
 3909               	.LVL231:
 3910               	/* #NOAPP */
 3911               	.LBE971:
 3912               	.LBE970:
 3913               	.LBE969:
 3914               	.LBE968:
 3915               	.LSM428:
 3916 0976 82E0      		ldi r24,lo8(2)
 3917 0978 8093 0000 		sts terminalStatus,r24
 3918               	.LSM429:
 3919 097c 1092 0000 		sts terminalBytesReceived,__zero_reg__
 3920               	.LSM430:
 3921 0980 8CE0      		ldi r24,lo8(12)
 3922 0982 00C0      		rjmp .L258
 3923               	.LVL232:
 3924               	.L140:
 3925               	.LSM431:
 3926 0984 0E94 0000 		call usart_read
 3927               	.L248:
 3928               	.LSM432:
 3929 0988 8091 0000 		lds r24,aMug+4
 3930 098c 9091 0000 		lds r25,aMug+4+1
 3931 0990 DC01      		movw r26,r24
 3932 0992 ED91      		ld r30,X+
 3933 0994 FC91      		ld r31,X
 3934 0996 1197      		sbiw r26,1
 3935 0998 2081      		ld r18,Z
 3936 099a 27FD      		sbrc r18,7
 3937 099c 00C0      		rjmp .L140
 3938               	.LSM433:
 3939 099e 80E0      		ldi r24,lo8(0)
 3940 09a0 0E94 0000 		call mugSwitchConsoleTo
 3941               	.LVL233:
 3942               	.LBB972:
 3943               	.LBB973:
 3944               	.LBB974:
 3945               	.LBB975:
 3946               	.LSM434:
 3947 09a4 80E2      		ldi r24,lo8(20000)
 3948 09a6 9EE4      		ldi r25,hi8(20000)
 3949               	/* #APP */
 3950               	 ;  105 "/opt/local/lib/gcc/avr/4.5.2/../../../../avr/include/util/delay_basic.h" 1
 3951 09a8 0197      		1: sbiw r24,1
 3952 09aa 01F4      		brne 1b
 3953               	 ;  0 "" 2
 3954               	.LVL234:
 3955               	/* #NOAPP */
 3956               	.LBE975:
 3957               	.LBE974:
 3958               	.LBE973:
 3959               	.LBE972:
 3960               	.LSM435:
 3961 09ac 8DE0      		ldi r24,lo8(13)
 3962 09ae 00C0      		rjmp .L258
 3963               	.LVL235:
 3964               	.L120:
 3965               	.LBB976:
 3966               	.LBB958:
 3967               	.LSM436:
 3968 09b0 8091 0000 		lds r24,terminalStatus
 3969 09b4 8230      		cpi r24,lo8(2)
 3970 09b6 01F4      		brne .L141
 3971               	.LSM437:
 3972 09b8 80E8      		ldi r24,lo8(-128)
 3973 09ba E0E0      		ldi r30,lo8(terminalReceivedBuffer)
 3974 09bc F0E0      		ldi r31,hi8(terminalReceivedBuffer)
 3975 09be 1192      		st Z+,__zero_reg__
 3976 09c0 8A95      	        dec r24
 3977 09c2 01F4      		brne .-6
 3978               	.LSM438:
 3979 09c4 1092 0000 		sts terminalBytesReceived,__zero_reg__
 3980               	.LSM439:
 3981 09c8 1092 0000 		sts terminalStatus,__zero_reg__
 3982               	.L141:
 3983               	.LSM440:
 3984 09cc E091 0000 		lds r30,aMug+4
 3985 09d0 F091 0000 		lds r31,aMug+4+1
 3986 09d4 0190      		ld __tmp_reg__,Z+
 3987 09d6 F081      		ld r31,Z
 3988 09d8 E02D      		mov r30,__tmp_reg__
 3989 09da 8081      		ld r24,Z
 3990 09dc 87FF      		sbrs r24,7
 3991 09de 00C0      		rjmp .L112
 3992 09e0 00C0      		rjmp .L271
 3993               	.L187:
 3994               	.LSM441:
 3995 09e2 2091 0000 		lds r18,terminalBytesReceived
 3996 09e6 27FF      		sbrs r18,7
 3997 09e8 00C0      		rjmp .L143
 3998               	.LSM442:
 3999 09ea 84E0      		ldi r24,lo8(4)
 4000 09ec 00C0      		rjmp .L147
 4001               	.L143:
 4002               	.LSM443:
 4003 09ee 0E94 0000 		call usart_read
 4004 09f2 282F      		mov r18,r24
 4005               	.LVL236:
 4006               	.LSM444:
 4007 09f4 8091 0000 		lds r24,aMug+4
 4008 09f8 9091 0000 		lds r25,aMug+4+1
 4009               	.LVL237:
 4010 09fc 622F      		mov r22,r18
 4011 09fe C755      		subi r28,lo8(-169)
 4012 0a00 DF4F      		sbci r29,hi8(-169)
 4013 0a02 2883      		st Y,r18
 4014 0a04 C95A      		subi r28,lo8(169)
 4015 0a06 D040      		sbci r29,hi8(169)
 4016 0a08 0E94 0000 		call usart_send_byte
 4017               	.LVL238:
 4018               	.LSM445:
 4019 0a0c C755      		subi r28,lo8(-169)
 4020 0a0e DF4F      		sbci r29,hi8(-169)
 4021 0a10 2881      		ld r18,Y
 4022 0a12 C95A      		subi r28,lo8(169)
 4023 0a14 D040      		sbci r29,hi8(169)
 4024 0a16 2D30      		cpi r18,lo8(13)
 4025 0a18 01F0      		breq .L145
 4026 0a1a 2A30      		cpi r18,lo8(10)
 4027 0a1c 01F0      		breq .L145
 4028 0a1e 2223      		tst r18
 4029 0a20 01F0      		breq .+2
 4030 0a22 00C0      		rjmp .L146
 4031               	.L145:
 4032               	.LSM446:
 4033 0a24 8091 0000 		lds r24,terminalStatus
 4034 0a28 8823      		tst r24
 4035 0a2a 01F4      		brne .+2
 4036 0a2c 00C0      		rjmp .L112
 4037               	.LSM447:
 4038 0a2e 8091 0000 		lds r24,aMug+4
 4039 0a32 9091 0000 		lds r25,aMug+4+1
 4040 0a36 60E0      		ldi r22,lo8(.LC6)
 4041 0a38 70E0      		ldi r23,hi8(.LC6)
 4042 0a3a 0E94 0000 		call usart_send_string
 4043               	.LSM448:
 4044 0a3e 8091 0000 		lds r24,terminalBytesReceived
 4045               	.LVL239:
 4046               	.LBB957:
 4047               	.LBB956:
 4048               	.LSM449:
 4049 0a42 8823      		tst r24
 4050 0a44 01F4      		brne .+2
 4051 0a46 00C0      		rjmp .L235
 4052               	.LVL240:
 4053               	.LSM450:
 4054 0a48 8091 0000 		lds r24,terminalReceivedBuffer
 4055 0a4c 8335      		cpi r24,lo8(83)
 4056 0a4e 01F4      		brne .+2
 4057 0a50 00C0      		rjmp .L154
 4058 0a52 8435      		cpi r24,lo8(84)
 4059 0a54 00F4      		brsh .L155
 4060 0a56 8734      		cpi r24,lo8(71)
 4061 0a58 01F0      		breq .L151
 4062 0a5a 8834      		cpi r24,lo8(72)
 4063 0a5c 00F4      		brsh .L156
 4064 0a5e 8F33      		cpi r24,lo8(63)
 4065 0a60 01F4      		brne .+2
 4066 0a62 00C0      		rjmp .L149
 4067 0a64 8134      		cpi r24,lo8(65)
 4068 0a66 01F0      		breq .+2
 4069 0a68 00C0      		rjmp .L148
 4070 0a6a 00C0      		rjmp .L150
 4071               	.L156:
 4072 0a6c 8D34      		cpi r24,lo8(77)
 4073 0a6e 01F4      		brne .+2
 4074 0a70 00C0      		rjmp .L152
 4075 0a72 8135      		cpi r24,lo8(81)
 4076 0a74 01F0      		breq .+2
 4077 0a76 00C0      		rjmp .L148
 4078 0a78 00C0      		rjmp .L153
 4079               	.L155:
 4080 0a7a 8D36      		cpi r24,lo8(109)
 4081 0a7c 01F4      		brne .+2
 4082 0a7e 00C0      		rjmp .L152
 4083 0a80 8E36      		cpi r24,lo8(110)
 4084 0a82 00F4      		brsh .L157
 4085 0a84 8136      		cpi r24,lo8(97)
 4086 0a86 01F4      		brne .+2
 4087 0a88 00C0      		rjmp .L150
 4088 0a8a 8736      		cpi r24,lo8(103)
 4089 0a8c 01F0      		breq .+2
 4090 0a8e 00C0      		rjmp .L148
 4091 0a90 00C0      		rjmp .L151
 4092               	.L157:
 4093 0a92 8137      		cpi r24,lo8(113)
 4094 0a94 01F4      		brne .+2
 4095 0a96 00C0      		rjmp .L153
 4096 0a98 8337      		cpi r24,lo8(115)
 4097 0a9a 01F0      		breq .+2
 4098 0a9c 00C0      		rjmp .L148
 4099 0a9e 00C0      		rjmp .L154
 4100               	.L151:
 4101               	.LVL241:
 4102               	.LBB941:
 4103               	.LBB942:
 4104               	.LSM451:
 4105 0aa0 8091 0000 		lds r24,terminalReceivedBuffer+1
 4106 0aa4 282F      		mov r18,r24
 4107 0aa6 30E0      		ldi r19,lo8(0)
 4108 0aa8 2053      		subi r18,lo8(-(-48))
 4109 0aaa 3040      		sbci r19,hi8(-(-48))
 4110 0aac 2A30      		cpi r18,10
 4111 0aae 3105      		cpc r19,__zero_reg__
 4112 0ab0 00F4      		brsh .+2
 4113 0ab2 00C0      		rjmp .L214
 4114               	.LSM452:
 4115 0ab4 90E0      		ldi r25,lo8(0)
 4116 0ab6 0E94 0000 		call isspace
 4117               	.LVL242:
 4118 0aba 0097      		sbiw r24,0
 4119 0abc 01F4      		brne .+2
 4120 0abe 00C0      		rjmp .L235
 4121               	.LSM453:
 4122 0ac0 80E0      		ldi r24,lo8(terminalReceivedBuffer+1)
 4123 0ac2 90E0      		ldi r25,hi8(terminalReceivedBuffer+1)
 4124 0ac4 0E94 0000 		call skip_whitespace
 4125 0ac8 FC01      		movw r30,r24
 4126               	.LVL243:
 4127               	.LSM454:
 4128 0aca 0196      		adiw r24,1
 4129               	.LVL244:
 4130 0acc 2081      		ld r18,Z
 4131 0ace 2335      		cpi r18,lo8(83)
 4132 0ad0 01F4      		brne .+2
 4133 0ad2 00C0      		rjmp .L164
 4134 0ad4 2435      		cpi r18,lo8(84)
 4135 0ad6 00F4      		brsh .L165
 4136 0ad8 2934      		cpi r18,lo8(73)
 4137 0ada 01F4      		brne .+2
 4138 0adc 00C0      		rjmp .L161
 4139 0ade 2A34      		cpi r18,lo8(74)
 4140 0ae0 00F4      		brsh .L166
 4141 0ae2 2F33      		cpi r18,lo8(63)
 4142 0ae4 01F4      		brne .+2
 4143 0ae6 00C0      		rjmp .L159
 4144 0ae8 2334      		cpi r18,lo8(67)
 4145 0aea 01F0      		breq .+2
 4146 0aec 00C0      		rjmp .L235
 4147 0aee 00C0      		rjmp .L160
 4148               	.L166:
 4149 0af0 2E34      		cpi r18,lo8(78)
 4150 0af2 01F0      		breq .L162
 4151 0af4 2035      		cpi r18,lo8(80)
 4152 0af6 01F0      		breq .+2
 4153 0af8 00C0      		rjmp .L235
 4154 0afa 00C0      		rjmp .L163
 4155               	.L165:
 4156 0afc 2E36      		cpi r18,lo8(110)
 4157 0afe 01F0      		breq .L162
 4158 0b00 2F36      		cpi r18,lo8(111)
 4159 0b02 00F4      		brsh .L167
 4160 0b04 2336      		cpi r18,lo8(99)
 4161 0b06 01F4      		brne .+2
 4162 0b08 00C0      		rjmp .L160
 4163 0b0a 2936      		cpi r18,lo8(105)
 4164 0b0c 01F0      		breq .+2
 4165 0b0e 00C0      		rjmp .L235
 4166 0b10 00C0      		rjmp .L161
 4167               	.L167:
 4168 0b12 2037      		cpi r18,lo8(112)
 4169 0b14 01F4      		brne .+2
 4170 0b16 00C0      		rjmp .L163
 4171 0b18 2337      		cpi r18,lo8(115)
 4172 0b1a 01F0      		breq .+2
 4173 0b1c 00C0      		rjmp .L235
 4174 0b1e 00C0      		rjmp .L164
 4175               	.L162:
 4176               	.LSM455:
 4177 0b20 0E94 0000 		call skip_whitespace
 4178               	.LVL245:
 4179               	.LSM456:
 4180 0b24 DC01      		movw r26,r24
 4181 0b26 2C91      		ld r18,X
 4182               	.LVL246:
 4183               	.LSM457:
 4184 0b28 2736      		cpi r18,lo8(103)
 4185 0b2a 01F4      		brne .L168
 4186               	.LSM458:
 4187 0b2c 8091 0000 		lds r24,aMug+4
 4188 0b30 9091 0000 		lds r25,aMug+4+1
 4189               	.LVL247:
 4190 0b34 60E0      		ldi r22,lo8(.LC17)
 4191 0b36 70E0      		ldi r23,hi8(.LC17)
 4192 0b38 0E94 0000 		call usart_send_string
 4193               	.LVL248:
 4194               	.LSM459:
 4195 0b3c 8091 0000 		lds r24,aMug+4
 4196 0b40 9091 0000 		lds r25,aMug+4+1
 4197 0b44 60E0      		ldi r22,lo8(aMug+158)
 4198 0b46 70E0      		ldi r23,hi8(aMug+158)
 4199 0b48 00C0      		rjmp .L263
 4200               	.LVL249:
 4201               	.L168:
 4202               	.LSM460:
 4203 0b4a 2337      		cpi r18,lo8(115)
 4204 0b4c 01F0      		breq .+2
 4205 0b4e 00C0      		rjmp .L235
 4206               	.LVL250:
 4207               	.LSM461:
 4208 0b50 0196      		adiw r24,1
 4209               	.LVL251:
 4210 0b52 0E94 0000 		call skip_whitespace
 4211               	.LVL252:
 4212               	.LSM462:
 4213 0b56 EDB7      		in r30,__SP_L__
 4214 0b58 FEB7      		in r31,__SP_H__
 4215 0b5a 3897      		sbiw r30,8
 4216 0b5c 0FB6      		in __tmp_reg__,__SREG__
 4217 0b5e F894      		cli
 4218 0b60 FEBF      		out __SP_H__,r31
 4219 0b62 0FBE      		out __SREG__,__tmp_reg__
 4220 0b64 EDBF      		out __SP_L__,r30
 4221 0b66 3196      		adiw r30,1
 4222 0b68 20E0      		ldi r18,lo8(aMug+158)
 4223 0b6a 30E0      		ldi r19,hi8(aMug+158)
 4224 0b6c ADB7      		in r26,__SP_L__
 4225 0b6e BEB7      		in r27,__SP_H__
 4226 0b70 1296      		adiw r26,1+1
 4227 0b72 3C93      		st X,r19
 4228 0b74 2E93      		st -X,r18
 4229 0b76 1197      		sbiw r26,1
 4230 0b78 20E1      		ldi r18,lo8(16)
 4231 0b7a 30E0      		ldi r19,hi8(16)
 4232 0b7c 00C0      		rjmp .L265
 4233               	.LVL253:
 4234               	.L161:
 4235               	.LSM463:
 4236 0b7e 0E94 0000 		call skip_whitespace
 4237               	.LVL254:
 4238               	.LSM464:
 4239 0b82 DC01      		movw r26,r24
 4240 0b84 2C91      		ld r18,X
 4241               	.LVL255:
 4242               	.LSM465:
 4243 0b86 2736      		cpi r18,lo8(103)
 4244 0b88 01F4      		brne .L169
 4245               	.LSM466:
 4246 0b8a 8091 0000 		lds r24,aMug+4
 4247 0b8e 9091 0000 		lds r25,aMug+4+1
 4248               	.LVL256:
 4249 0b92 60E0      		ldi r22,lo8(.LC20)
 4250 0b94 70E0      		ldi r23,hi8(.LC20)
 4251 0b96 0E94 0000 		call usart_send_string
 4252               	.LVL257:
 4253               	.LSM467:
 4254 0b9a 8091 0000 		lds r24,aMug+4
 4255 0b9e 9091 0000 		lds r25,aMug+4+1
 4256 0ba2 60E0      		ldi r22,lo8(aMug+174)
 4257 0ba4 70E0      		ldi r23,hi8(aMug+174)
 4258               	.LVL258:
 4259               	.L263:
 4260 0ba6 0E94 0000 		call usart_send_string
 4261               	.LSM468:
 4262 0baa 8091 0000 		lds r24,aMug+4
 4263 0bae 9091 0000 		lds r25,aMug+4+1
 4264 0bb2 60E0      		ldi r22,lo8(.LC6)
 4265 0bb4 70E0      		ldi r23,hi8(.LC6)
 4266 0bb6 00C0      		rjmp .L256
 4267               	.LVL259:
 4268               	.L169:
 4269               	.LSM469:
 4270 0bb8 2337      		cpi r18,lo8(115)
 4271 0bba 01F0      		breq .+2
 4272 0bbc 00C0      		rjmp .L235
 4273               	.LVL260:
 4274               	.LSM470:
 4275 0bbe 0196      		adiw r24,1
 4276               	.LVL261:
 4277 0bc0 0E94 0000 		call skip_whitespace
 4278               	.LVL262:
 4279               	.LSM471:
 4280 0bc4 EDB7      		in r30,__SP_L__
 4281 0bc6 FEB7      		in r31,__SP_H__
 4282 0bc8 3897      		sbiw r30,8
 4283 0bca 0FB6      		in __tmp_reg__,__SREG__
 4284 0bcc F894      		cli
 4285 0bce FEBF      		out __SP_H__,r31
 4286 0bd0 0FBE      		out __SREG__,__tmp_reg__
 4287 0bd2 EDBF      		out __SP_L__,r30
 4288 0bd4 3196      		adiw r30,1
 4289 0bd6 20E0      		ldi r18,lo8(aMug+174)
 4290 0bd8 30E0      		ldi r19,hi8(aMug+174)
 4291               	.L267:
 4292 0bda ADB7      		in r26,__SP_L__
 4293 0bdc BEB7      		in r27,__SP_H__
 4294 0bde 1296      		adiw r26,1+1
 4295 0be0 3C93      		st X,r19
 4296 0be2 2E93      		st -X,r18
 4297 0be4 1197      		sbiw r26,1
 4298 0be6 25E0      		ldi r18,lo8(5)
 4299 0be8 30E0      		ldi r19,hi8(5)
 4300               	.L265:
 4301 0bea 3383      		std Z+3,r19
 4302 0bec 2283      		std Z+2,r18
 4303 0bee 3582      		std Z+5,r3
 4304 0bf0 2482      		std Z+4,r2
 4305 0bf2 9783      		std Z+7,r25
 4306 0bf4 8683      		std Z+6,r24
 4307 0bf6 0E94 0000 		call snprintf
 4308               	.LVL263:
 4309               	.LSM472:
 4310 0bfa 8DB7      		in r24,__SP_L__
 4311 0bfc 9EB7      		in r25,__SP_H__
 4312 0bfe 0896      		adiw r24,8
 4313 0c00 0FB6      		in __tmp_reg__,__SREG__
 4314 0c02 F894      		cli
 4315 0c04 9EBF      		out __SP_H__,r25
 4316 0c06 0FBE      		out __SREG__,__tmp_reg__
 4317 0c08 8DBF      		out __SP_L__,r24
 4318               	.L266:
 4319 0c0a 0E94 0000 		call mugWriteConfig
 4320               	.LSM473:
 4321 0c0e 0E94 0000 		call mugReadConfig
 4322 0c12 00C0      		rjmp .L264
 4323               	.LVL264:
 4324               	.L163:
 4325               	.LSM474:
 4326 0c14 0E94 0000 		call skip_whitespace
 4327               	.LVL265:
 4328               	.LSM475:
 4329 0c18 DC01      		movw r26,r24
 4330 0c1a 2C91      		ld r18,X
 4331               	.LVL266:
 4332               	.LSM476:
 4333 0c1c 2736      		cpi r18,lo8(103)
 4334 0c1e 01F4      		brne .L170
 4335               	.LSM477:
 4336 0c20 8091 0000 		lds r24,aMug+4
 4337 0c24 9091 0000 		lds r25,aMug+4+1
 4338               	.LVL267:
 4339 0c28 60E0      		ldi r22,lo8(.LC21)
 4340 0c2a 70E0      		ldi r23,hi8(.LC21)
 4341 0c2c 0E94 0000 		call usart_send_string
 4342               	.LVL268:
 4343               	.LSM478:
 4344 0c30 8091 0000 		lds r24,aMug+4
 4345 0c34 9091 0000 		lds r25,aMug+4+1
 4346 0c38 60E0      		ldi r22,lo8(aMug+179)
 4347 0c3a 70E0      		ldi r23,hi8(aMug+179)
 4348 0c3c 00C0      		rjmp .L263
 4349               	.LVL269:
 4350               	.L170:
 4351               	.LSM479:
 4352 0c3e 2337      		cpi r18,lo8(115)
 4353 0c40 01F0      		breq .+2
 4354 0c42 00C0      		rjmp .L235
 4355               	.LVL270:
 4356               	.LSM480:
 4357 0c44 0196      		adiw r24,1
 4358               	.LVL271:
 4359 0c46 0E94 0000 		call skip_whitespace
 4360               	.LVL272:
 4361               	.LSM481:
 4362 0c4a EDB7      		in r30,__SP_L__
 4363 0c4c FEB7      		in r31,__SP_H__
 4364 0c4e 3897      		sbiw r30,8
 4365 0c50 0FB6      		in __tmp_reg__,__SREG__
 4366 0c52 F894      		cli
 4367 0c54 FEBF      		out __SP_H__,r31
 4368 0c56 0FBE      		out __SREG__,__tmp_reg__
 4369 0c58 EDBF      		out __SP_L__,r30
 4370 0c5a 3196      		adiw r30,1
 4371 0c5c 20E0      		ldi r18,lo8(aMug+179)
 4372 0c5e 30E0      		ldi r19,hi8(aMug+179)
 4373 0c60 00C0      		rjmp .L267
 4374               	.LVL273:
 4375               	.L160:
 4376               	.LSM482:
 4377 0c62 0E94 0000 		call skip_whitespace
 4378               	.LVL274:
 4379               	.LSM483:
 4380 0c66 DC01      		movw r26,r24
 4381 0c68 2C91      		ld r18,X
 4382               	.LVL275:
 4383               	.LSM484:
 4384 0c6a 2736      		cpi r18,lo8(103)
 4385 0c6c 01F4      		brne .L171
 4386               	.LSM485:
 4387 0c6e 8091 0000 		lds r24,aMug+4
 4388 0c72 9091 0000 		lds r25,aMug+4+1
 4389               	.LVL276:
 4390 0c76 60E0      		ldi r22,lo8(.LC22)
 4391 0c78 70E0      		ldi r23,hi8(.LC22)
 4392 0c7a 0E94 0000 		call usart_send_string
 4393               	.LVL277:
 4394               	.LSM486:
 4395 0c7e 8091 0000 		lds r24,aMug+4
 4396 0c82 9091 0000 		lds r25,aMug+4+1
 4397 0c86 60E0      		ldi r22,lo8(aMug+184)
 4398 0c88 70E0      		ldi r23,hi8(aMug+184)
 4399 0c8a 00C0      		rjmp .L263
 4400               	.LVL278:
 4401               	.L171:
 4402               	.LSM487:
 4403 0c8c 2337      		cpi r18,lo8(115)
 4404 0c8e 01F0      		breq .+2
 4405 0c90 00C0      		rjmp .L235
 4406               	.LVL279:
 4407               	.LSM488:
 4408 0c92 0196      		adiw r24,1
 4409               	.LVL280:
 4410 0c94 0E94 0000 		call skip_whitespace
 4411               	.LVL281:
 4412               	.LSM489:
 4413 0c98 EDB7      		in r30,__SP_L__
 4414 0c9a FEB7      		in r31,__SP_H__
 4415 0c9c 3897      		sbiw r30,8
 4416 0c9e 0FB6      		in __tmp_reg__,__SREG__
 4417 0ca0 F894      		cli
 4418 0ca2 FEBF      		out __SP_H__,r31
 4419 0ca4 0FBE      		out __SREG__,__tmp_reg__
 4420 0ca6 EDBF      		out __SP_L__,r30
 4421 0ca8 3196      		adiw r30,1
 4422 0caa 20E0      		ldi r18,lo8(aMug+184)
 4423 0cac 30E0      		ldi r19,hi8(aMug+184)
 4424 0cae ADB7      		in r26,__SP_L__
 4425 0cb0 BEB7      		in r27,__SP_H__
 4426 0cb2 1296      		adiw r26,1+1
 4427 0cb4 3C93      		st X,r19
 4428 0cb6 2E93      		st -X,r18
 4429 0cb8 1197      		sbiw r26,1
 4430 0cba 23E0      		ldi r18,lo8(3)
 4431 0cbc 30E0      		ldi r19,hi8(3)
 4432 0cbe 00C0      		rjmp .L265
 4433               	.LVL282:
 4434               	.L164:
 4435               	.LSM490:
 4436 0cc0 0E94 0000 		call skip_whitespace
 4437               	.LVL283:
 4438               	.LSM491:
 4439 0cc4 DC01      		movw r26,r24
 4440 0cc6 2C91      		ld r18,X
 4441               	.LVL284:
 4442               	.LSM492:
 4443 0cc8 2736      		cpi r18,lo8(103)
 4444 0cca 01F4      		brne .L172
 4445               	.LBB943:
 4446               	.LSM493:
 4447 0ccc EDB7      		in r30,__SP_L__
 4448 0cce FEB7      		in r31,__SP_H__
 4449 0cd0 3897      		sbiw r30,8
 4450 0cd2 0FB6      		in __tmp_reg__,__SREG__
 4451 0cd4 F894      		cli
 4452 0cd6 FEBF      		out __SP_H__,r31
 4453 0cd8 0FBE      		out __SREG__,__tmp_reg__
 4454 0cda EDBF      		out __SP_L__,r30
 4455 0cdc 3196      		adiw r30,1
 4456 0cde ADB7      		in r26,__SP_L__
 4457 0ce0 BEB7      		in r27,__SP_H__
 4458 0ce2 1296      		adiw r26,1+1
 4459 0ce4 1C93      		st X,r17
 4460 0ce6 0E93      		st -X,r16
 4461 0ce8 1197      		sbiw r26,1
 4462 0cea 80E1      		ldi r24,lo8(16)
 4463 0cec 90E0      		ldi r25,hi8(16)
 4464               	.LVL285:
 4465 0cee 9383      		std Z+3,r25
 4466 0cf0 8283      		std Z+2,r24
 4467 0cf2 20E0      		ldi r18,lo8(.LC23)
 4468 0cf4 30E0      		ldi r19,hi8(.LC23)
 4469               	.LVL286:
 4470 0cf6 3583      		std Z+5,r19
 4471 0cf8 2483      		std Z+4,r18
 4472 0cfa 8091 0000 		lds r24,aMug+187
 4473 0cfe 8683      		std Z+6,r24
 4474 0d00 1782      		std Z+7,__zero_reg__
 4475 0d02 0E94 0000 		call snprintf
 4476               	.LSM494:
 4477 0d06 8DB7      		in r24,__SP_L__
 4478 0d08 9EB7      		in r25,__SP_H__
 4479 0d0a 0896      		adiw r24,8
 4480 0d0c 0FB6      		in __tmp_reg__,__SREG__
 4481 0d0e F894      		cli
 4482 0d10 9EBF      		out __SP_H__,r25
 4483 0d12 0FBE      		out __SREG__,__tmp_reg__
 4484 0d14 8DBF      		out __SP_L__,r24
 4485 0d16 8091 0000 		lds r24,aMug+4
 4486 0d1a 9091 0000 		lds r25,aMug+4+1
 4487 0d1e B801      		movw r22,r16
 4488 0d20 00C0      		rjmp .L256
 4489               	.LVL287:
 4490               	.L172:
 4491               	.LBE943:
 4492               	.LSM495:
 4493 0d22 2337      		cpi r18,lo8(115)
 4494 0d24 01F0      		breq .+2
 4495 0d26 00C0      		rjmp .L235
 4496               	.LVL288:
 4497               	.LBB944:
 4498               	.LSM496:
 4499 0d28 0196      		adiw r24,1
 4500               	.LVL289:
 4501 0d2a 0E94 0000 		call skip_whitespace
 4502               	.LVL290:
 4503               	.LSM497:
 4504 0d2e DC01      		movw r26,r24
 4505 0d30 2C91      		ld r18,X
 4506 0d32 30E0      		ldi r19,lo8(0)
 4507 0d34 2053      		subi r18,lo8(-(-48))
 4508 0d36 3040      		sbci r19,hi8(-(-48))
 4509 0d38 2A30      		cpi r18,10
 4510 0d3a 3105      		cpc r19,__zero_reg__
 4511 0d3c 00F0      		brlo .+2
 4512 0d3e 00C0      		rjmp .L235
 4513               	.LSM498:
 4514 0d40 0E94 0000 		call atoi
 4515               	.LVL291:
 4516               	.LSM499:
 4517 0d44 8823      		tst r24
 4518 0d46 01F4      		brne .+2
 4519 0d48 00C0      		rjmp .L235
 4520               	.LSM500:
 4521 0d4a 8093 0000 		sts aMug+187,r24
 4522 0d4e 00C0      		rjmp .L266
 4523               	.LVL292:
 4524               	.L159:
 4525               	.LBE944:
 4526               	.LSM501:
 4527 0d50 8091 0000 		lds r24,aMug+4
 4528 0d54 9091 0000 		lds r25,aMug+4+1
 4529               	.LVL293:
 4530 0d58 60E0      		ldi r22,lo8(.LC24)
 4531 0d5a 70E0      		ldi r23,hi8(.LC24)
 4532 0d5c 0E94 0000 		call usart_send_string
 4533               	.LSM502:
 4534 0d60 8091 0000 		lds r24,aMug+4
 4535 0d64 9091 0000 		lds r25,aMug+4+1
 4536 0d68 60E0      		ldi r22,lo8(.LC25)
 4537 0d6a 70E0      		ldi r23,hi8(.LC25)
 4538 0d6c 0E94 0000 		call usart_send_string
 4539               	.LSM503:
 4540 0d70 8091 0000 		lds r24,aMug+4
 4541 0d74 9091 0000 		lds r25,aMug+4+1
 4542 0d78 60E0      		ldi r22,lo8(.LC26)
 4543 0d7a 70E0      		ldi r23,hi8(.LC26)
 4544 0d7c 0E94 0000 		call usart_send_string
 4545               	.LSM504:
 4546 0d80 8091 0000 		lds r24,aMug+4
 4547 0d84 9091 0000 		lds r25,aMug+4+1
 4548 0d88 60E0      		ldi r22,lo8(.LC27)
 4549 0d8a 70E0      		ldi r23,hi8(.LC27)
 4550 0d8c 0E94 0000 		call usart_send_string
 4551               	.LSM505:
 4552 0d90 8091 0000 		lds r24,aMug+4
 4553 0d94 9091 0000 		lds r25,aMug+4+1
 4554 0d98 60E0      		ldi r22,lo8(.LC25)
 4555 0d9a 70E0      		ldi r23,hi8(.LC25)
 4556 0d9c 0E94 0000 		call usart_send_string
 4557               	.LSM506:
 4558 0da0 8091 0000 		lds r24,aMug+4
 4559 0da4 9091 0000 		lds r25,aMug+4+1
 4560 0da8 60E0      		ldi r22,lo8(.LC28)
 4561 0daa 70E0      		ldi r23,hi8(.LC28)
 4562 0dac 0E94 0000 		call usart_send_string
 4563               	.LSM507:
 4564 0db0 8091 0000 		lds r24,aMug+4
 4565 0db4 9091 0000 		lds r25,aMug+4+1
 4566 0db8 60E0      		ldi r22,lo8(.LC29)
 4567 0dba 70E0      		ldi r23,hi8(.LC29)
 4568 0dbc 0E94 0000 		call usart_send_string
 4569               	.LSM508:
 4570 0dc0 8091 0000 		lds r24,aMug+4
 4571 0dc4 9091 0000 		lds r25,aMug+4+1
 4572 0dc8 60E0      		ldi r22,lo8(.LC25)
 4573 0dca 70E0      		ldi r23,hi8(.LC25)
 4574 0dcc 0E94 0000 		call usart_send_string
 4575               	.LSM509:
 4576 0dd0 8091 0000 		lds r24,aMug+4
 4577 0dd4 9091 0000 		lds r25,aMug+4+1
 4578 0dd8 60E0      		ldi r22,lo8(.LC30)
 4579 0dda 70E0      		ldi r23,hi8(.LC30)
 4580 0ddc 0E94 0000 		call usart_send_string
 4581               	.LSM510:
 4582 0de0 8091 0000 		lds r24,aMug+4
 4583 0de4 9091 0000 		lds r25,aMug+4+1
 4584 0de8 60E0      		ldi r22,lo8(.LC31)
 4585 0dea 70E0      		ldi r23,hi8(.LC31)
 4586 0dec 0E94 0000 		call usart_send_string
 4587               	.LSM511:
 4588 0df0 8091 0000 		lds r24,aMug+4
 4589 0df4 9091 0000 		lds r25,aMug+4+1
 4590 0df8 60E0      		ldi r22,lo8(.LC25)
 4591 0dfa 70E0      		ldi r23,hi8(.LC25)
 4592 0dfc 0E94 0000 		call usart_send_string
 4593               	.LSM512:
 4594 0e00 8091 0000 		lds r24,aMug+4
 4595 0e04 9091 0000 		lds r25,aMug+4+1
 4596 0e08 60E0      		ldi r22,lo8(.LC32)
 4597 0e0a 70E0      		ldi r23,hi8(.LC32)
 4598 0e0c 0E94 0000 		call usart_send_string
 4599               	.LSM513:
 4600 0e10 8091 0000 		lds r24,aMug+4
 4601 0e14 9091 0000 		lds r25,aMug+4+1
 4602 0e18 60E0      		ldi r22,lo8(.LC33)
 4603 0e1a 70E0      		ldi r23,hi8(.LC33)
 4604 0e1c 0E94 0000 		call usart_send_string
 4605               	.LSM514:
 4606 0e20 8091 0000 		lds r24,aMug+4
 4607 0e24 9091 0000 		lds r25,aMug+4+1
 4608 0e28 60E0      		ldi r22,lo8(.LC25)
 4609 0e2a 70E0      		ldi r23,hi8(.LC25)
 4610 0e2c 0E94 0000 		call usart_send_string
 4611               	.LSM515:
 4612 0e30 8091 0000 		lds r24,aMug+4
 4613 0e34 9091 0000 		lds r25,aMug+4+1
 4614 0e38 60E0      		ldi r22,lo8(.LC34)
 4615 0e3a 70E0      		ldi r23,hi8(.LC34)
 4616 0e3c 00C0      		rjmp .L256
 4617               	.LVL294:
 4618               	.L152:
 4619               	.LBE942:
 4620               	.LBE941:
 4621               	.LBB945:
 4622               	.LBB940:
 4623               	.LSM516:
 4624 0e3e 8091 0000 		lds r24,terminalReceivedBuffer+1
 4625 0e42 282F      		mov r18,r24
 4626 0e44 30E0      		ldi r19,lo8(0)
 4627 0e46 2053      		subi r18,lo8(-(-48))
 4628 0e48 3040      		sbci r19,hi8(-(-48))
 4629 0e4a 2A30      		cpi r18,10
 4630 0e4c 3105      		cpc r19,__zero_reg__
 4631 0e4e 00F4      		brsh .+2
 4632 0e50 00C0      		rjmp .L214
 4633               	.LSM517:
 4634 0e52 90E0      		ldi r25,lo8(0)
 4635 0e54 0E94 0000 		call isspace
 4636               	.LVL295:
 4637 0e58 0097      		sbiw r24,0
 4638 0e5a 01F4      		brne .+2
 4639 0e5c 00C0      		rjmp .L235
 4640               	.LSM518:
 4641 0e5e 80E0      		ldi r24,lo8(terminalReceivedBuffer+1)
 4642 0e60 90E0      		ldi r25,hi8(terminalReceivedBuffer+1)
 4643 0e62 0E94 0000 		call skip_whitespace
 4644 0e66 FC01      		movw r30,r24
 4645               	.LVL296:
 4646               	.LSM519:
 4647 0e68 0196      		adiw r24,1
 4648               	.LVL297:
 4649 0e6a 2081      		ld r18,Z
 4650 0e6c 2735      		cpi r18,lo8(87)
 4651 0e6e 01F4      		brne .+2
 4652 0e70 00C0      		rjmp .L177
 4653 0e72 2835      		cpi r18,lo8(88)
 4654 0e74 00F4      		brsh .L178
 4655 0e76 2F33      		cpi r18,lo8(63)
 4656 0e78 01F4      		brne .+2
 4657 0e7a 00C0      		rjmp .L175
 4658 0e7c 2235      		cpi r18,lo8(82)
 4659 0e7e 01F0      		breq .+2
 4660 0e80 00C0      		rjmp .L235
 4661 0e82 00C0      		rjmp .L176
 4662               	.L178:
 4663 0e84 2237      		cpi r18,lo8(114)
 4664 0e86 01F0      		breq .L176
 4665 0e88 2737      		cpi r18,lo8(119)
 4666 0e8a 01F0      		breq .+2
 4667 0e8c 00C0      		rjmp .L235
 4668 0e8e 00C0      		rjmp .L177
 4669               	.L176:
 4670               	.LSM520:
 4671 0e90 0E94 0000 		call skip_whitespace
 4672               	.LVL298:
 4673               	.LSM521:
 4674 0e94 FC01      		movw r30,r24
 4675 0e96 2081      		ld r18,Z
 4676 0e98 30E0      		ldi r19,lo8(0)
 4677 0e9a 2053      		subi r18,lo8(-(-48))
 4678 0e9c 3040      		sbci r19,hi8(-(-48))
 4679 0e9e 2A30      		cpi r18,10
 4680 0ea0 3105      		cpc r19,__zero_reg__
 4681 0ea2 00F4      		brsh .L231
 4682               	.LSM522:
 4683 0ea4 0E94 0000 		call atoi
 4684               	.LVL299:
 4685 0ea8 7C01      		movw r14,r24
 4686               	.LVL300:
 4687               	.LSM523:
 4688 0eaa 8531      		cpi r24,21
 4689 0eac 9105      		cpc r25,__zero_reg__
 4690 0eae 04F0      		brlt .+2
 4691 0eb0 00C0      		rjmp .L235
 4692               	.LSM524:
 4693 0eb2 1816      		cp __zero_reg__,r24
 4694 0eb4 1906      		cpc __zero_reg__,r25
 4695 0eb6 04F4      		brge .L181
 4696 0eb8 00C0      		rjmp .L272
 4697               	.LVL301:
 4698               	.L231:
 4699               	.LSM525:
 4700 0eba EE24      		clr r14
 4701 0ebc FF24      		clr r15
 4702 0ebe 00C0      		rjmp .L181
 4703               	.LVL302:
 4704               	.L272:
 4705               	.LSM526:
 4706 0ec0 C090 0000 		lds r12,aMug+4
 4707 0ec4 D090 0000 		lds r13,aMug+4+1
 4708 0ec8 0E94 0000 		call mugReadMessage
 4709 0ecc BC01      		movw r22,r24
 4710 0ece C601      		movw r24,r12
 4711 0ed0 00C0      		rjmp .L263
 4712               	.LVL303:
 4713               	.L181:
 4714               	.LBB938:
 4715               	.LSM527:
 4716 0ed2 B7E0      		ldi r27,lo8(7)
 4717 0ed4 AB2E      		mov r10,r27
 4718 0ed6 B12C      		mov r11,__zero_reg__
 4719               	.L237:
 4720               	.LSM528:
 4721 0ed8 8E2D      		mov r24,r14
 4722 0eda 0E94 0000 		call mugReadMessage
 4723 0ede 6C01      		movw r12,r24
 4724               	.LVL304:
 4725               	.LSM529:
 4726 0ee0 2DB7      		in r18,__SP_L__
 4727 0ee2 3EB7      		in r19,__SP_H__
 4728 0ee4 2850      		subi r18,lo8(-(-8))
 4729 0ee6 3040      		sbci r19,hi8(-(-8))
 4730 0ee8 0FB6      		in __tmp_reg__,__SREG__
 4731 0eea F894      		cli
 4732 0eec 3EBF      		out __SP_H__,r19
 4733 0eee 0FBE      		out __SREG__,__tmp_reg__
 4734 0ef0 2DBF      		out __SP_L__,r18
 4735 0ef2 EDB7      		in r30,__SP_L__
 4736 0ef4 FEB7      		in r31,__SP_H__
 4737 0ef6 3196      		adiw r30,1
 4738 0ef8 ADB7      		in r26,__SP_L__
 4739 0efa BEB7      		in r27,__SP_H__
 4740 0efc 1296      		adiw r26,1+1
 4741 0efe 1C93      		st X,r17
 4742 0f00 0E93      		st -X,r16
 4743 0f02 1197      		sbiw r26,1
 4744 0f04 B382      		std Z+3,r11
 4745 0f06 A282      		std Z+2,r10
 4746 0f08 20E0      		ldi r18,lo8(.LC35)
 4747 0f0a 30E0      		ldi r19,hi8(.LC35)
 4748 0f0c 3583      		std Z+5,r19
 4749 0f0e 2483      		std Z+4,r18
 4750 0f10 F782      		std Z+7,r15
 4751 0f12 E682      		std Z+6,r14
 4752 0f14 0E94 0000 		call snprintf
 4753               	.LVL305:
 4754               	.LSM530:
 4755 0f18 8DB7      		in r24,__SP_L__
 4756 0f1a 9EB7      		in r25,__SP_H__
 4757 0f1c 0896      		adiw r24,8
 4758 0f1e 0FB6      		in __tmp_reg__,__SREG__
 4759 0f20 F894      		cli
 4760 0f22 9EBF      		out __SP_H__,r25
 4761 0f24 0FBE      		out __SREG__,__tmp_reg__
 4762 0f26 8DBF      		out __SP_L__,r24
 4763 0f28 8091 0000 		lds r24,aMug+4
 4764 0f2c 9091 0000 		lds r25,aMug+4+1
 4765 0f30 B801      		movw r22,r16
 4766 0f32 0E94 0000 		call usart_send_string
 4767               	.LSM531:
 4768 0f36 D601      		movw r26,r12
 4769 0f38 8C91      		ld r24,X
 4770 0f3a C090 0000 		lds r12,aMug+4
 4771 0f3e D090 0000 		lds r13,aMug+4+1
 4772               	.LVL306:
 4773 0f42 8823      		tst r24
 4774 0f44 01F4      		brne .L182
 4775               	.LSM532:
 4776 0f46 C601      		movw r24,r12
 4777 0f48 60E0      		ldi r22,lo8(.LC36)
 4778 0f4a 70E0      		ldi r23,hi8(.LC36)
 4779 0f4c 00C0      		rjmp .L255
 4780               	.L182:
 4781               	.LSM533:
 4782 0f4e 8E2D      		mov r24,r14
 4783 0f50 0E94 0000 		call mugReadMessage
 4784               	.LVL307:
 4785 0f54 BC01      		movw r22,r24
 4786 0f56 C601      		movw r24,r12
 4787               	.L255:
 4788 0f58 0E94 0000 		call usart_send_string
 4789               	.LSM534:
 4790 0f5c 8091 0000 		lds r24,aMug+4
 4791 0f60 9091 0000 		lds r25,aMug+4+1
 4792 0f64 60E0      		ldi r22,lo8(.LC6)
 4793 0f66 70E0      		ldi r23,hi8(.LC6)
 4794 0f68 0E94 0000 		call usart_send_string
 4795               	.LBE938:
 4796               	.LSM535:
 4797 0f6c 0894      		sec
 4798 0f6e E11C      		adc r14,__zero_reg__
 4799 0f70 F11C      		adc r15,__zero_reg__
 4800               	.LVL308:
 4801 0f72 B4E1      		ldi r27,lo8(20)
 4802 0f74 EB16      		cp r14,r27
 4803 0f76 F104      		cpc r15,__zero_reg__
 4804 0f78 04F4      		brge .+2
 4805 0f7a 00C0      		rjmp .L237
 4806 0f7c 00C0      		rjmp .L214
 4807               	.LVL309:
 4808               	.L177:
 4809               	.LSM536:
 4810 0f7e 0E94 0000 		call skip_whitespace
 4811               	.LVL310:
 4812 0f82 6C01      		movw r12,r24
 4813               	.LVL311:
 4814               	.LSM537:
 4815 0f84 FC01      		movw r30,r24
 4816 0f86 8081      		ld r24,Z
 4817               	.LVL312:
 4818 0f88 90E0      		ldi r25,lo8(0)
 4819 0f8a C097      		sbiw r24,48
 4820 0f8c 8A30      		cpi r24,10
 4821 0f8e 9105      		cpc r25,__zero_reg__
 4822 0f90 00F0      		brlo .+2
 4823 0f92 00C0      		rjmp .L235
 4824               	.LVL313:
 4825               	.LSM538:
 4826 0f94 C601      		movw r24,r12
 4827 0f96 0E94 0000 		call atoi
 4828 0f9a 7C01      		movw r14,r24
 4829               	.LVL314:
 4830               	.LSM539:
 4831 0f9c 8531      		cpi r24,21
 4832 0f9e 9105      		cpc r25,__zero_reg__
 4833 0fa0 04F0      		brlt .+2
 4834 0fa2 00C0      		rjmp .L235
 4835               	.LVL315:
 4836               	.LSM540:
 4837 0fa4 C601      		movw r24,r12
 4838               	.LVL316:
 4839 0fa6 0296      		adiw r24,2
 4840 0fa8 0E94 0000 		call skip_whitespace
 4841               	.LVL317:
 4842               	.LBB939:
 4843               	.LBB937:
 4844               	.LSM541:
 4845 0fac 2DB7      		in r18,__SP_L__
 4846 0fae 3EB7      		in r19,__SP_H__
 4847 0fb0 2850      		subi r18,lo8(-(-8))
 4848 0fb2 3040      		sbci r19,hi8(-(-8))
 4849 0fb4 0FB6      		in __tmp_reg__,__SREG__
 4850 0fb6 F894      		cli
 4851 0fb8 3EBF      		out __SP_H__,r19
 4852 0fba 0FBE      		out __SREG__,__tmp_reg__
 4853 0fbc 2DBF      		out __SP_L__,r18
 4854 0fbe EDB7      		in r30,__SP_L__
 4855 0fc0 FEB7      		in r31,__SP_H__
 4856 0fc2 3196      		adiw r30,1
 4857 0fc4 ADB7      		in r26,__SP_L__
 4858 0fc6 BEB7      		in r27,__SP_H__
 4859 0fc8 1296      		adiw r26,1+1
 4860 0fca 1C93      		st X,r17
 4861 0fcc 0E93      		st -X,r16
 4862 0fce 1197      		sbiw r26,1
 4863 0fd0 2FE3      		ldi r18,lo8(63)
 4864 0fd2 30E0      		ldi r19,hi8(63)
 4865 0fd4 3383      		std Z+3,r19
 4866 0fd6 2283      		std Z+2,r18
 4867 0fd8 3582      		std Z+5,r3
 4868 0fda 2482      		std Z+4,r2
 4869 0fdc 9783      		std Z+7,r25
 4870 0fde 8683      		std Z+6,r24
 4871 0fe0 0E94 0000 		call snprintf
 4872               	.LVL318:
 4873 0fe4 EDB7      		in r30,__SP_L__
 4874 0fe6 FEB7      		in r31,__SP_H__
 4875 0fe8 3896      		adiw r30,8
 4876 0fea 0FB6      		in __tmp_reg__,__SREG__
 4877 0fec F894      		cli
 4878 0fee FEBF      		out __SP_H__,r31
 4879 0ff0 0FBE      		out __SREG__,__tmp_reg__
 4880 0ff2 EDBF      		out __SP_L__,r30
 4881               	.L184:
 4882               	.LSM542:
 4883 0ff4 F999      		sbic 63-0x20,1
 4884 0ff6 00C0      		rjmp .L184
 4885               	.LSM543:
 4886 0ff8 EE2D      		mov r30,r14
 4887 0ffa F0E0      		ldi r31,lo8(0)
 4888 0ffc EE0F      		lsl r30
 4889 0ffe FF1F      		rol r31
 4890 1000 E050      		subi r30,lo8(-(eMugMsgs))
 4891 1002 F040      		sbci r31,hi8(-(eMugMsgs))
 4892 1004 6081      		ld r22,Z
 4893 1006 7181      		ldd r23,Z+1
 4894 1008 C801      		movw r24,r16
 4895 100a 40E4      		ldi r20,lo8(64)
 4896 100c 50E0      		ldi r21,hi8(64)
 4897 100e 0E94 0000 		call __eewr_block_m1284p
 4898               	.LVL319:
 4899               	.L264:
 4900               	.LBE937:
 4901               	.LBE939:
 4902               	.LSM544:
 4903 1012 8091 0000 		lds r24,aMug+4
 4904 1016 9091 0000 		lds r25,aMug+4+1
 4905 101a 60E0      		ldi r22,lo8(.LC19)
 4906 101c 70E0      		ldi r23,hi8(.LC19)
 4907 101e 00C0      		rjmp .L256
 4908               	.LVL320:
 4909               	.L175:
 4910               	.LSM545:
 4911 1020 8091 0000 		lds r24,aMug+4
 4912 1024 9091 0000 		lds r25,aMug+4+1
 4913               	.LVL321:
 4914 1028 60E0      		ldi r22,lo8(.LC37)
 4915 102a 70E0      		ldi r23,hi8(.LC37)
 4916 102c 0E94 0000 		call usart_send_string
 4917               	.LSM546:
 4918 1030 8091 0000 		lds r24,aMug+4
 4919 1034 9091 0000 		lds r25,aMug+4+1
 4920 1038 60E0      		ldi r22,lo8(.LC38)
 4921 103a 70E0      		ldi r23,hi8(.LC38)
 4922 103c 00C0      		rjmp .L256
 4923               	.LVL322:
 4924               	.L149:
 4925               	.LBE940:
 4926               	.LBE945:
 4927               	.LSM547:
 4928 103e 8091 0000 		lds r24,aMug+4
 4929 1042 9091 0000 		lds r25,aMug+4+1
 4930 1046 60E0      		ldi r22,lo8(.LC16)
 4931 1048 70E0      		ldi r23,hi8(.LC16)
 4932 104a 0E94 0000 		call usart_send_string
 4933               	.LVL323:
 4934               	.LSM548:
 4935 104e 8091 0000 		lds r24,aMug+4
 4936 1052 9091 0000 		lds r25,aMug+4+1
 4937 1056 60E0      		ldi r22,lo8(.LC39)
 4938 1058 70E0      		ldi r23,hi8(.LC39)
 4939 105a 0E94 0000 		call usart_send_string
 4940               	.LSM549:
 4941 105e 8091 0000 		lds r24,aMug+4
 4942 1062 9091 0000 		lds r25,aMug+4+1
 4943 1066 60E0      		ldi r22,lo8(.LC40)
 4944 1068 70E0      		ldi r23,hi8(.LC40)
 4945 106a 0E94 0000 		call usart_send_string
 4946               	.LSM550:
 4947 106e 8091 0000 		lds r24,aMug+4
 4948 1072 9091 0000 		lds r25,aMug+4+1
 4949 1076 60E0      		ldi r22,lo8(.LC41)
 4950 1078 70E0      		ldi r23,hi8(.LC41)
 4951 107a 0E94 0000 		call usart_send_string
 4952               	.LSM551:
 4953 107e 8091 0000 		lds r24,aMug+4
 4954 1082 9091 0000 		lds r25,aMug+4+1
 4955 1086 60E0      		ldi r22,lo8(.LC42)
 4956 1088 70E0      		ldi r23,hi8(.LC42)
 4957 108a 0E94 0000 		call usart_send_string
 4958               	.LSM552:
 4959 108e 8091 0000 		lds r24,aMug+4
 4960 1092 9091 0000 		lds r25,aMug+4+1
 4961 1096 60E0      		ldi r22,lo8(.LC43)
 4962 1098 70E0      		ldi r23,hi8(.LC43)
 4963 109a 00C0      		rjmp .L256
 4964               	.LVL324:
 4965               	.L153:
 4966               	.LBB946:
 4967               	.LSM553:
 4968 109c EFB6      		in r14,__SREG__
 4969               	.LVL325:
 4970               	.LBB947:
 4971               	.LBB948:
 4972               	.LSM554:
 4973               	/* #APP */
 4974               	 ;  50 "/opt/local/lib/gcc/avr/4.5.2/../../../../avr/include/util/atomic.h" 1
 4975 109e F894      		cli
 4976               	 ;  0 "" 2
 4977               	.LVL326:
 4978               	/* #NOAPP */
 4979               	.LBE948:
 4980               	.LBE947:
 4981               	.LBB949:
 4982               	.LSM555:
 4983 10a0 C090 0000 		lds r12,aMug+12
 4984               	.LVL327:
 4985 10a4 80E0      		ldi r24,lo8(0)
 4986 10a6 0E94 0000 		call mugSwitchConsoleTo
 4987               	.LVL328:
 4988               	.LBB950:
 4989               	.LBB951:
 4990               	.LBB952:
 4991               	.LBB953:
 4992               	.LSM556:
 4993 10aa 80E1      		ldi r24,lo8(10000)
 4994 10ac 97E2      		ldi r25,hi8(10000)
 4995               	/* #APP */
 4996               	 ;  105 "/opt/local/lib/gcc/avr/4.5.2/../../../../avr/include/util/delay_basic.h" 1
 4997 10ae 0197      		1: sbiw r24,1
 4998 10b0 01F4      		brne 1b
 4999               	 ;  0 "" 2
 5000               	.LVL329:
 5001               	/* #NOAPP */
 5002               	.LBE953:
 5003               	.LBE952:
 5004               	.LBE951:
 5005               	.LBE950:
 5006               	.LSM557:
 5007 10b2 00D0      		rcall .
 5008 10b4 00D0      		rcall .
 5009 10b6 0F92      		push __tmp_reg__
 5010 10b8 EDB7      		in r30,__SP_L__
 5011 10ba FEB7      		in r31,__SP_H__
 5012 10bc 3196      		adiw r30,1
 5013 10be 2091 0000 		lds r18,aMug+2
 5014 10c2 3091 0000 		lds r19,aMug+2+1
 5015 10c6 ADB7      		in r26,__SP_L__
 5016 10c8 BEB7      		in r27,__SP_H__
 5017 10ca 1296      		adiw r26,1+1
 5018 10cc 3C93      		st X,r19
 5019 10ce 2E93      		st -X,r18
 5020 10d0 1197      		sbiw r26,1
 5021 10d2 88E0      		ldi r24,lo8(8)
 5022 10d4 8283      		std Z+2,r24
 5023 10d6 20E0      		ldi r18,lo8(.LC44)
 5024 10d8 30E0      		ldi r19,hi8(.LC44)
 5025 10da 3483      		std Z+4,r19
 5026 10dc 2383      		std Z+3,r18
 5027 10de 0E94 0000 		call OLEDConstructMessage
 5028 10e2 0F90      		pop __tmp_reg__
 5029 10e4 0F90      		pop __tmp_reg__
 5030 10e6 0F90      		pop __tmp_reg__
 5031 10e8 0F90      		pop __tmp_reg__
 5032 10ea 0F90      		pop __tmp_reg__
 5033 10ec 8823      		tst r24
 5034 10ee 01F0      		breq .L186
 5035 10f0 8091 0000 		lds r24,aMug+2
 5036 10f4 9091 0000 		lds r25,aMug+2+1
 5037 10f8 0E94 0000 		call OLEDSendMessage
 5038               	.L186:
 5039 10fc 8C2D      		mov r24,r12
 5040 10fe 0E94 0000 		call mugSwitchConsoleTo
 5041               	.LVL330:
 5042               	.LBE949:
 5043               	.LBB954:
 5044               	.LBB955:
 5045               	.LSM558:
 5046 1102 EFBE      		out __SREG__,r14
 5047               	.LSM559:
 5048               	.LBE955:
 5049               	.LBE954:
 5050               	.LBE946:
 5051               	.LSM560:
 5052 1104 85E0      		ldi r24,lo8(5)
 5053 1106 00C0      		rjmp .L257
 5054               	.LVL331:
 5055               	.L150:
 5056               	.LSM561:
 5057 1108 8DE0      		ldi r24,lo8(13)
 5058               	.LVL332:
 5059               	.L257:
 5060 110a 8093 0000 		sts aMug+9,r24
 5061 110e 00C0      		rjmp .L214
 5062               	.LVL333:
 5063               	.L154:
 5064               	.LSM562:
 5065 1110 0E94 0000 		call mugShutdown
 5066               	.LVL334:
 5067 1114 00C0      		rjmp .L214
 5068               	.LVL335:
 5069               	.L148:
 5070               	.LSM563:
 5071 1116 8091 0000 		lds r24,aMug+4
 5072 111a 9091 0000 		lds r25,aMug+4+1
 5073 111e 60E0      		ldi r22,lo8(.LC45)
 5074 1120 70E0      		ldi r23,hi8(.LC45)
 5075 1122 0E94 0000 		call usart_send_string
 5076               	.LVL336:
 5077               	.LSM564:
 5078 1126 8091 0000 		lds r24,aMug+4
 5079 112a 9091 0000 		lds r25,aMug+4+1
 5080 112e 6091 0000 		lds r22,terminalReceivedBuffer
 5081 1132 0E94 0000 		call usart_send_byte
 5082               	.LSM565:
 5083 1136 8091 0000 		lds r24,aMug+4
 5084 113a 9091 0000 		lds r25,aMug+4+1
 5085 113e 60E0      		ldi r22,lo8(.LC46)
 5086 1140 70E0      		ldi r23,hi8(.LC46)
 5087               	.L256:
 5088 1142 0E94 0000 		call usart_send_string
 5089               	.L214:
 5090               	.LSM566:
 5091 1146 82E0      		ldi r24,lo8(2)
 5092 1148 00C0      		rjmp .L147
 5093               	.LVL337:
 5094               	.L235:
 5095               	.LSM567:
 5096 114a 83E0      		ldi r24,lo8(3)
 5097               	.LVL338:
 5098               	.L147:
 5099               	.LBE956:
 5100               	.LBE957:
 5101               	.LSM568:
 5102 114c 8093 0000 		sts terminalStatus,r24
 5103 1150 00C0      		rjmp .L188
 5104               	.L146:
 5105               	.LSM569:
 5106 1152 8091 0000 		lds r24,terminalBytesReceived
 5107 1156 E82F      		mov r30,r24
 5108 1158 F0E0      		ldi r31,lo8(0)
 5109 115a E050      		subi r30,lo8(-(terminalReceivedBuffer))
 5110 115c F040      		sbci r31,hi8(-(terminalReceivedBuffer))
 5111 115e 2083      		st Z,r18
 5112 1160 8F5F      		subi r24,lo8(-(1))
 5113 1162 8093 0000 		sts terminalBytesReceived,r24
 5114               	.LSM570:
 5115 1166 E092 0000 		sts terminalStatus,r14
 5116 116a 00C0      		rjmp .L252
 5117               	.L271:
 5118 116c EE24      		clr r14
 5119 116e E394      		inc r14
 5120               	.L252:
 5121               	.LSM571:
 5122 1170 8091 0000 		lds r24,aMug+4
 5123 1174 9091 0000 		lds r25,aMug+4+1
 5124 1178 DC01      		movw r26,r24
 5125 117a ED91      		ld r30,X+
 5126 117c FC91      		ld r31,X
 5127 117e 1197      		sbiw r26,1
 5128 1180 2081      		ld r18,Z
 5129 1182 27FD      		sbrc r18,7
 5130 1184 00C0      		rjmp .L187
 5131               	.L144:
 5132               	.L188:
 5133               	.LSM572:
 5134 1186 8091 0000 		lds r24,terminalStatus
 5135 118a 8330      		cpi r24,lo8(3)
 5136 118c 01F4      		brne .L189
 5137               	.LSM573:
 5138 118e 8091 0000 		lds r24,aMug+4
 5139 1192 9091 0000 		lds r25,aMug+4+1
 5140 1196 60E0      		ldi r22,lo8(.LC47)
 5141 1198 70E0      		ldi r23,hi8(.LC47)
 5142 119a 00C0      		rjmp .L259
 5143               	.L189:
 5144               	.LSM574:
 5145 119c 8430      		cpi r24,lo8(4)
 5146 119e 01F4      		brne .L112
 5147               	.LSM575:
 5148 11a0 8091 0000 		lds r24,aMug+4
 5149 11a4 9091 0000 		lds r25,aMug+4+1
 5150 11a8 60E0      		ldi r22,lo8(.LC48)
 5151 11aa 70E0      		ldi r23,hi8(.LC48)
 5152               	.L259:
 5153 11ac 0E94 0000 		call usart_send_string
 5154               	.LSM576:
 5155 11b0 82E0      		ldi r24,lo8(2)
 5156 11b2 8093 0000 		sts terminalStatus,r24
 5157               	.L112:
 5158               	.LBE958:
 5159               	.LBE976:
 5160               	.LBB977:
 5161               	.LBB978:
 5162               	.LSM577:
 5163 11b6 8091 0000 		lds r24,startTime.2619
 5164 11ba 9091 0000 		lds r25,startTime.2619+1
 5165 11be A091 0000 		lds r26,startTime.2619+2
 5166 11c2 B091 0000 		lds r27,startTime.2619+3
 5167 11c6 0097      		sbiw r24,0
 5168 11c8 A105      		cpc r26,__zero_reg__
 5169 11ca B105      		cpc r27,__zero_reg__
 5170 11cc 01F4      		brne .L190
 5171               	.LSM578:
 5172 11ce 0E94 0000 		call systemGetElapsedTime
 5173 11d2 6093 0000 		sts startTime.2619,r22
 5174 11d6 7093 0000 		sts startTime.2619+1,r23
 5175 11da 8093 0000 		sts startTime.2619+2,r24
 5176 11de 9093 0000 		sts startTime.2619+3,r25
 5177               	.L190:
 5178               	.LSM579:
 5179 11e2 0E94 0000 		call systemGetElapsedTime
 5180 11e6 2B01      		movw r4,r22
 5181 11e8 3C01      		movw r6,r24
 5182 11ea 8091 0000 		lds r24,startTime.2619
 5183 11ee 9091 0000 		lds r25,startTime.2619+1
 5184 11f2 A091 0000 		lds r26,startTime.2619+2
 5185 11f6 B091 0000 		lds r27,startTime.2619+3
 5186 11fa 481A      		sub r4,r24
 5187 11fc 590A      		sbc r5,r25
 5188 11fe 6A0A      		sbc r6,r26
 5189 1200 7B0A      		sbc r7,r27
 5190               	.LVL339:
 5191               	.LSM580:
 5192 1202 8091 0000 		lds r24,aMug+24
 5193 1206 81FF      		sbrs r24,1
 5194 1208 00C0      		rjmp .L191
 5195               	.LSM581:
 5196 120a 81E0      		ldi r24,lo8(1)
 5197 120c 8093 0000 		sts aMug+10,r24
 5198               	.LBB979:
 5199 1210 8FB7      		in r24,__SREG__
 5200               	.LVL340:
 5201               	.LBB980:
 5202               	.LBB981:
 5203               	.LSM582:
 5204               	/* #APP */
 5205               	 ;  50 "/opt/local/lib/gcc/avr/4.5.2/../../../../avr/include/util/atomic.h" 1
 5206 1212 F894      		cli
 5207               	 ;  0 "" 2
 5208               	.LVL341:
 5209               	/* #NOAPP */
 5210               	.LBE981:
 5211               	.LBE980:
 5212               	.LSM583:
 5213 1214 1092 0000 		sts activityTimer,__zero_reg__
 5214 1218 1092 0000 		sts activityTimer+1,__zero_reg__
 5215 121c 1092 0000 		sts activityTimer+2,__zero_reg__
 5216 1220 1092 0000 		sts activityTimer+3,__zero_reg__
 5217               	.LVL342:
 5218               	.LBB982:
 5219               	.LBB983:
 5220               	.LSM584:
 5221 1224 8FBF      		out __SREG__,r24
 5222               	.LSM585:
 5223               	.LBE983:
 5224               	.LBE982:
 5225               	.LBE979:
 5226               	.LSM586:
 5227 1226 0E94 0000 		call mugWakeUpIfNeeded
 5228               	.LVL343:
 5229               	.LSM587:
 5230 122a 0E94 0000 		call mugHandleShortButtonPress
 5231 122e 00C0      		rjmp .L261
 5232               	.LVL344:
 5233               	.L191:
 5234               	.LSM588:
 5235 1230 80FF      		sbrs r24,0
 5236 1232 00C0      		rjmp .L192
 5237               	.LSM589:
 5238 1234 81E0      		ldi r24,lo8(1)
 5239 1236 8093 0000 		sts aMug+10,r24
 5240               	.LBB984:
 5241 123a 8FB7      		in r24,__SREG__
 5242               	.LVL345:
 5243               	.LBB985:
 5244               	.LBB986:
 5245               	.LSM590:
 5246               	/* #APP */
 5247               	 ;  50 "/opt/local/lib/gcc/avr/4.5.2/../../../../avr/include/util/atomic.h" 1
 5248 123c F894      		cli
 5249               	 ;  0 "" 2
 5250               	.LVL346:
 5251               	/* #NOAPP */
 5252               	.LBE986:
 5253               	.LBE985:
 5254               	.LSM591:
 5255 123e 1092 0000 		sts activityTimer,__zero_reg__
 5256 1242 1092 0000 		sts activityTimer+1,__zero_reg__
 5257 1246 1092 0000 		sts activityTimer+2,__zero_reg__
 5258 124a 1092 0000 		sts activityTimer+3,__zero_reg__
 5259               	.LVL347:
 5260               	.LBB987:
 5261               	.LBB988:
 5262               	.LSM592:
 5263 124e 8FBF      		out __SREG__,r24
 5264               	.LSM593:
 5265               	.LBE988:
 5266               	.LBE987:
 5267               	.LBE984:
 5268               	.LSM594:
 5269 1250 0E94 0000 		call mugWakeUpIfNeeded
 5270               	.LVL348:
 5271               	.LSM595:
 5272 1254 0E94 0000 		call mugHandleLongButtonPress
 5273               	.LVL349:
 5274               	.L261:
 5275 1258 0E94 0000 		call mugSetCurrentState
 5276               	.LSM596:
 5277 125c 1092 0000 		sts aMug+24,__zero_reg__
 5278               	.L192:
 5279               	.LSM597:
 5280 1260 8091 0000 		lds r24,aMug+9
 5281 1264 8823      		tst r24
 5282 1266 01F4      		brne .+2
 5283 1268 00C0      		rjmp .L250
 5284 126a 8C30      		cpi r24,lo8(12)
 5285 126c 01F4      		brne .+2
 5286 126e 00C0      		rjmp .L250
 5287               	.LSM598:
 5288 1270 C090 0000 		lds r12,aMug+11
 5289 1274 BC2D      		mov r27,r12
 5290 1276 B130      		cpi r27,lo8(1)
 5291 1278 01F0      		breq .+2
 5292 127a 00C0      		rjmp .L194
 5293               	.LSM599:
 5294 127c C092 0000 		sts aMug+10,r12
 5295               	.LBB989:
 5296 1280 8FB7      		in r24,__SREG__
 5297               	.LVL350:
 5298               	.LBB990:
 5299               	.LBB991:
 5300               	.LSM600:
 5301               	/* #APP */
 5302               	 ;  50 "/opt/local/lib/gcc/avr/4.5.2/../../../../avr/include/util/atomic.h" 1
 5303 1282 F894      		cli
 5304               	 ;  0 "" 2
 5305               	.LVL351:
 5306               	/* #NOAPP */
 5307               	.LBE991:
 5308               	.LBE990:
 5309               	.LSM601:
 5310 1284 1092 0000 		sts activityTimer,__zero_reg__
 5311 1288 1092 0000 		sts activityTimer+1,__zero_reg__
 5312 128c 1092 0000 		sts activityTimer+2,__zero_reg__
 5313 1290 1092 0000 		sts activityTimer+3,__zero_reg__
 5314               	.LVL352:
 5315               	.LBB992:
 5316               	.LBB993:
 5317               	.LSM602:
 5318 1294 8FBF      		out __SREG__,r24
 5319               	.LSM603:
 5320               	.LBE993:
 5321               	.LBE992:
 5322               	.LBE989:
 5323               	.LSM604:
 5324 1296 0E94 0000 		call mugWakeUpIfNeeded
 5325               	.LVL353:
 5326               	.LBB994:
 5327               	.LSM605:
 5328 129a EFB6      		in r14,__SREG__
 5329               	.LVL354:
 5330               	.LBB995:
 5331               	.LBB996:
 5332               	.LSM606:
 5333               	/* #APP */
 5334               	 ;  50 "/opt/local/lib/gcc/avr/4.5.2/../../../../avr/include/util/atomic.h" 1
 5335 129c F894      		cli
 5336               	 ;  0 "" 2
 5337               	.LVL355:
 5338               	/* #NOAPP */
 5339               	.LBE996:
 5340               	.LBE995:
 5341               	.LSM607:
 5342 129e EDB7      		in r30,__SP_L__
 5343 12a0 FEB7      		in r31,__SP_H__
 5344 12a2 3797      		sbiw r30,7
 5345 12a4 0FB6      		in __tmp_reg__,__SREG__
 5346 12a6 F894      		cli
 5347 12a8 FEBF      		out __SP_H__,r31
 5348 12aa 0FBE      		out __SREG__,__tmp_reg__
 5349 12ac EDBF      		out __SP_L__,r30
 5350 12ae 3196      		adiw r30,1
 5351 12b0 8091 0000 		lds r24,aMug+2
 5352 12b4 9091 0000 		lds r25,aMug+2+1
 5353 12b8 ADB7      		in r26,__SP_L__
 5354 12ba BEB7      		in r27,__SP_H__
 5355 12bc 1296      		adiw r26,1+1
 5356 12be 9C93      		st X,r25
 5357 12c0 8E93      		st -X,r24
 5358 12c2 1197      		sbiw r26,1
 5359 12c4 C282      		std Z+2,r12
 5360 12c6 83E0      		ldi r24,lo8(3)
 5361 12c8 90E0      		ldi r25,hi8(3)
 5362 12ca 9483      		std Z+4,r25
 5363 12cc 8383      		std Z+3,r24
 5364 12ce 81E0      		ldi r24,lo8(1)
 5365 12d0 90E0      		ldi r25,hi8(1)
 5366 12d2 9683      		std Z+6,r25
 5367 12d4 8583      		std Z+5,r24
 5368 12d6 0E94 0000 		call OLEDConstructMessage
 5369 12da EDB7      		in r30,__SP_L__
 5370 12dc FEB7      		in r31,__SP_H__
 5371 12de 3796      		adiw r30,7
 5372 12e0 0FB6      		in __tmp_reg__,__SREG__
 5373 12e2 F894      		cli
 5374 12e4 FEBF      		out __SP_H__,r31
 5375 12e6 0FBE      		out __SREG__,__tmp_reg__
 5376 12e8 EDBF      		out __SP_L__,r30
 5377 12ea 8823      		tst r24
 5378 12ec 01F0      		breq .L195
 5379               	.LBB997:
 5380 12ee C090 0000 		lds r12,aMug+12
 5381               	.LVL356:
 5382 12f2 80E0      		ldi r24,lo8(0)
 5383 12f4 0E94 0000 		call mugSwitchConsoleTo
 5384               	.LVL357:
 5385               	.LBB998:
 5386               	.LBB999:
 5387               	.LBB1000:
 5388               	.LBB1001:
 5389               	.LSM608:
 5390 12f8 E0E1      		ldi r30,lo8(10000)
 5391 12fa F7E2      		ldi r31,hi8(10000)
 5392               	/* #APP */
 5393               	 ;  105 "/opt/local/lib/gcc/avr/4.5.2/../../../../avr/include/util/delay_basic.h" 1
 5394 12fc 3197      		1: sbiw r30,1
 5395 12fe 01F4      		brne 1b
 5396               	 ;  0 "" 2
 5397               	.LVL358:
 5398               	/* #NOAPP */
 5399               	.LBE1001:
 5400               	.LBE1000:
 5401               	.LBE999:
 5402               	.LBE998:
 5403               	.LSM609:
 5404 1300 8091 0000 		lds r24,aMug+2
 5405 1304 9091 0000 		lds r25,aMug+2+1
 5406 1308 0E94 0000 		call OLEDSendMessage
 5407 130c 8C2D      		mov r24,r12
 5408 130e 0E94 0000 		call mugSwitchConsoleTo
 5409               	.LVL359:
 5410               	.L195:
 5411               	.LBE997:
 5412               	.LBB1002:
 5413               	.LBB1003:
 5414               	.LSM610:
 5415 1312 EFBE      		out __SREG__,r14
 5416               	.LSM611:
 5417               	.LBE1003:
 5418               	.LBE1002:
 5419               	.LBE994:
 5420               	.LBB1004:
 5421               	.LSM612:
 5422 1314 EFB6      		in r14,__SREG__
 5423               	.LVL360:
 5424               	.LBB1005:
 5425               	.LBB1006:
 5426               	.LSM613:
 5427               	/* #APP */
 5428               	 ;  50 "/opt/local/lib/gcc/avr/4.5.2/../../../../avr/include/util/atomic.h" 1
 5429 1316 F894      		cli
 5430               	 ;  0 "" 2
 5431               	.LVL361:
 5432               	/* #NOAPP */
 5433               	.LBE1006:
 5434               	.LBE1005:
 5435               	.LBB1007:
 5436               	.LSM614:
 5437 1318 C090 0000 		lds r12,aMug+12
 5438               	.LVL362:
 5439 131c 80E0      		ldi r24,lo8(0)
 5440 131e 0E94 0000 		call mugSwitchConsoleTo
 5441               	.LVL363:
 5442               	.LBB1008:
 5443               	.LBB1009:
 5444               	.LBB1010:
 5445               	.LBB1011:
 5446               	.LSM615:
 5447 1322 80E1      		ldi r24,lo8(10000)
 5448 1324 97E2      		ldi r25,hi8(10000)
 5449               	/* #APP */
 5450               	 ;  105 "/opt/local/lib/gcc/avr/4.5.2/../../../../avr/include/util/delay_basic.h" 1
 5451 1326 0197      		1: sbiw r24,1
 5452 1328 01F4      		brne 1b
 5453               	 ;  0 "" 2
 5454               	.LVL364:
 5455               	/* #NOAPP */
 5456               	.LBE1011:
 5457               	.LBE1010:
 5458               	.LBE1009:
 5459               	.LBE1008:
 5460               	.LSM616:
 5461 132a 00D0      		rcall .
 5462 132c 00D0      		rcall .
 5463 132e 0F92      		push __tmp_reg__
 5464 1330 EDB7      		in r30,__SP_L__
 5465 1332 FEB7      		in r31,__SP_H__
 5466 1334 3196      		adiw r30,1
 5467 1336 2091 0000 		lds r18,aMug+2
 5468 133a 3091 0000 		lds r19,aMug+2+1
 5469 133e ADB7      		in r26,__SP_L__
 5470 1340 BEB7      		in r27,__SP_H__
 5471 1342 1296      		adiw r26,1+1
 5472 1344 3C93      		st X,r19
 5473 1346 2E93      		st -X,r18
 5474 1348 1197      		sbiw r26,1
 5475 134a 88E0      		ldi r24,lo8(8)
 5476 134c 8283      		std Z+2,r24
 5477 134e 20E0      		ldi r18,lo8(aMug+94)
 5478 1350 30E0      		ldi r19,hi8(aMug+94)
 5479 1352 3483      		std Z+4,r19
 5480 1354 2383      		std Z+3,r18
 5481 1356 0E94 0000 		call OLEDConstructMessage
 5482 135a 0F90      		pop __tmp_reg__
 5483 135c 0F90      		pop __tmp_reg__
 5484 135e 0F90      		pop __tmp_reg__
 5485 1360 0F90      		pop __tmp_reg__
 5486 1362 0F90      		pop __tmp_reg__
 5487 1364 8823      		tst r24
 5488 1366 01F0      		breq .L196
 5489 1368 8091 0000 		lds r24,aMug+2
 5490 136c 9091 0000 		lds r25,aMug+2+1
 5491 1370 0E94 0000 		call OLEDSendMessage
 5492               	.L196:
 5493 1374 8C2D      		mov r24,r12
 5494 1376 0E94 0000 		call mugSwitchConsoleTo
 5495               	.LVL365:
 5496               	.LBE1007:
 5497               	.LBB1012:
 5498               	.LBB1013:
 5499               	.LSM617:
 5500 137a EFBE      		out __SREG__,r14
 5501               	.LSM618:
 5502               	.LBE1013:
 5503               	.LBE1012:
 5504               	.LBE1004:
 5505               	.LBB1014:
 5506               	.LSM619:
 5507 137c EFB6      		in r14,__SREG__
 5508               	.LVL366:
 5509               	.LBB1015:
 5510               	.LBB1016:
 5511               	.LSM620:
 5512               	/* #APP */
 5513               	 ;  50 "/opt/local/lib/gcc/avr/4.5.2/../../../../avr/include/util/atomic.h" 1
 5514 137e F894      		cli
 5515               	 ;  0 "" 2
 5516               	.LVL367:
 5517               	/* #NOAPP */
 5518               	.LBE1016:
 5519               	.LBE1015:
 5520               	.LSM621:
 5521 1380 8DB7      		in r24,__SP_L__
 5522 1382 9EB7      		in r25,__SP_H__
 5523 1384 0797      		sbiw r24,7
 5524 1386 0FB6      		in __tmp_reg__,__SREG__
 5525 1388 F894      		cli
 5526 138a 9EBF      		out __SP_H__,r25
 5527 138c 0FBE      		out __SREG__,__tmp_reg__
 5528 138e 8DBF      		out __SP_L__,r24
 5529 1390 EDB7      		in r30,__SP_L__
 5530 1392 FEB7      		in r31,__SP_H__
 5531 1394 3196      		adiw r30,1
 5532 1396 8091 0000 		lds r24,aMug+2
 5533 139a 9091 0000 		lds r25,aMug+2+1
 5534 139e ADB7      		in r26,__SP_L__
 5535 13a0 BEB7      		in r27,__SP_H__
 5536 13a2 1296      		adiw r26,1+1
 5537 13a4 9C93      		st X,r25
 5538 13a6 8E93      		st -X,r24
 5539 13a8 1197      		sbiw r26,1
 5540 13aa 81E0      		ldi r24,lo8(1)
 5541 13ac 8283      		std Z+2,r24
 5542 13ae 83E0      		ldi r24,lo8(3)
 5543 13b0 90E0      		ldi r25,hi8(3)
 5544 13b2 9483      		std Z+4,r25
 5545 13b4 8383      		std Z+3,r24
 5546 13b6 1682      		std Z+6,__zero_reg__
 5547 13b8 1582      		std Z+5,__zero_reg__
 5548 13ba 0E94 0000 		call OLEDConstructMessage
 5549               	.LVL368:
 5550 13be EDB7      		in r30,__SP_L__
 5551 13c0 FEB7      		in r31,__SP_H__
 5552 13c2 3796      		adiw r30,7
 5553 13c4 0FB6      		in __tmp_reg__,__SREG__
 5554 13c6 F894      		cli
 5555 13c8 FEBF      		out __SP_H__,r31
 5556 13ca 0FBE      		out __SREG__,__tmp_reg__
 5557 13cc EDBF      		out __SP_L__,r30
 5558 13ce 8823      		tst r24
 5559 13d0 01F0      		breq .L197
 5560               	.LBB1017:
 5561 13d2 C090 0000 		lds r12,aMug+12
 5562               	.LVL369:
 5563 13d6 80E0      		ldi r24,lo8(0)
 5564 13d8 0E94 0000 		call mugSwitchConsoleTo
 5565               	.LVL370:
 5566               	.LBB1018:
 5567               	.LBB1019:
 5568               	.LBB1020:
 5569               	.LBB1021:
 5570               	.LSM622:
 5571 13dc E0E1      		ldi r30,lo8(10000)
 5572 13de F7E2      		ldi r31,hi8(10000)
 5573               	/* #APP */
 5574               	 ;  105 "/opt/local/lib/gcc/avr/4.5.2/../../../../avr/include/util/delay_basic.h" 1
 5575 13e0 3197      		1: sbiw r30,1
 5576 13e2 01F4      		brne 1b
 5577               	 ;  0 "" 2
 5578               	.LVL371:
 5579               	/* #NOAPP */
 5580               	.LBE1021:
 5581               	.LBE1020:
 5582               	.LBE1019:
 5583               	.LBE1018:
 5584               	.LSM623:
 5585 13e4 8091 0000 		lds r24,aMug+2
 5586 13e8 9091 0000 		lds r25,aMug+2+1
 5587 13ec 0E94 0000 		call OLEDSendMessage
 5588 13f0 8C2D      		mov r24,r12
 5589 13f2 0E94 0000 		call mugSwitchConsoleTo
 5590               	.LVL372:
 5591               	.L197:
 5592               	.LBE1017:
 5593               	.LBB1022:
 5594               	.LBB1023:
 5595               	.LSM624:
 5596 13f6 EFBE      		out __SREG__,r14
 5597               	.LSM625:
 5598               	.LBE1023:
 5599               	.LBE1022:
 5600               	.LBE1014:
 5601               	.LSM626:
 5602 13f8 1092 0000 		sts aMug+11,__zero_reg__
 5603               	.LVL373:
 5604               	.L194:
 5605               	.LSM627:
 5606 13fc F5E1      		ldi r31,lo8(21)
 5607 13fe 4F16      		cp r4,r31
 5608 1400 5104      		cpc r5,__zero_reg__
 5609 1402 6104      		cpc r6,__zero_reg__
 5610 1404 7104      		cpc r7,__zero_reg__
 5611 1406 00F4      		brsh .+2
 5612 1408 00C0      		rjmp .L198
 5613               	.LSM628:
 5614 140a 8091 0000 		lds r24,aMug+29
 5615 140e 8150      		subi r24,lo8(-(-1))
 5616 1410 8093 0000 		sts aMug+29,r24
 5617 1414 1816      		cp __zero_reg__,r24
 5618 1416 04F0      		brlt .L199
 5619               	.LSM629:
 5620 1418 1092 0000 		sts aMug+29,__zero_reg__
 5621               	.L199:
 5622               	.LBB1024:
 5623               	.LBB1025:
 5624               	.LBB1026:
 5625               	.LSM630:
 5626 141c 8091 7C00 		lds r24,124
 5627 1420 807E      		andi r24,lo8(-32)
 5628               	.LVL374:
 5629               	.L200:
 5630 1422 9091 7A00 		lds r25,122
 5631 1426 96FD      		sbrc r25,6
 5632 1428 00C0      		rjmp .L200
 5633 142a 8093 7C00 		sts 124,r24
 5634 142e 8091 7A00 		lds r24,122
 5635               	.LVL375:
 5636 1432 8064      		ori r24,lo8(64)
 5637 1434 8093 7A00 		sts 122,r24
 5638               	.L201:
 5639               	.LBE1026:
 5640               	.LBB1027:
 5641               	.LBB1028:
 5642               	.LSM631:
 5643 1438 8091 7A00 		lds r24,122
 5644 143c 86FD      		sbrc r24,6
 5645 143e 00C0      		rjmp .L201
 5646               	.LSM632:
 5647 1440 E090 7800 		lds r14,120
 5648               	.LVL376:
 5649               	.LSM633:
 5650 1444 8091 7900 		lds r24,121
 5651 1448 CE55      		subi r28,lo8(-162)
 5652 144a DF4F      		sbci r29,hi8(-162)
 5653 144c 8883      		st Y,r24
 5654 144e C25A      		subi r28,lo8(162)
 5655 1450 D040      		sbci r29,hi8(162)
 5656 1452 CF55      		subi r28,lo8(-161)
 5657 1454 DF4F      		sbci r29,hi8(-161)
 5658 1456 1882      		st Y,__zero_reg__
 5659 1458 C15A      		subi r28,lo8(161)
 5660 145a D040      		sbci r29,hi8(161)
 5661               	.LSM634:
 5662 145c FF24      		clr r15
 5663               	.LSM635:
 5664 145e CF55      		subi r28,lo8(-161)
 5665 1460 DF4F      		sbci r29,hi8(-161)
 5666 1462 2881      		ld r18,Y
 5667 1464 3981      		ldd r19,Y+1
 5668 1466 C15A      		subi r28,lo8(161)
 5669 1468 D040      		sbci r29,hi8(161)
 5670 146a E22A      		or r14,r18
 5671 146c F32A      		or r15,r19
 5672               	.LVL377:
 5673               	.LBE1028:
 5674               	.LBE1027:
 5675               	.LBB1029:
 5676               	.LSM636:
 5677 146e 8091 7C00 		lds r24,124
 5678 1472 807E      		andi r24,lo8(-32)
 5679               	.LVL378:
 5680               	.L202:
 5681 1474 9091 7A00 		lds r25,122
 5682 1478 96FD      		sbrc r25,6
 5683 147a 00C0      		rjmp .L202
 5684 147c 8160      		ori r24,lo8(1)
 5685               	.LVL379:
 5686 147e 8093 7C00 		sts 124,r24
 5687 1482 8091 7A00 		lds r24,122
 5688 1486 8064      		ori r24,lo8(64)
 5689 1488 8093 7A00 		sts 122,r24
 5690               	.L203:
 5691               	.LBE1029:
 5692               	.LBB1030:
 5693               	.LBB1031:
 5694               	.LSM637:
 5695 148c 8091 7A00 		lds r24,122
 5696 1490 86FD      		sbrc r24,6
 5697 1492 00C0      		rjmp .L203
 5698               	.LSM638:
 5699 1494 C090 7800 		lds r12,120
 5700               	.LVL380:
 5701               	.LSM639:
 5702 1498 8091 7900 		lds r24,121
 5703 149c CC55      		subi r28,lo8(-164)
 5704 149e DF4F      		sbci r29,hi8(-164)
 5705 14a0 8883      		st Y,r24
 5706 14a2 C45A      		subi r28,lo8(164)
 5707 14a4 D040      		sbci r29,hi8(164)
 5708 14a6 CD55      		subi r28,lo8(-163)
 5709 14a8 DF4F      		sbci r29,hi8(-163)
 5710 14aa 1882      		st Y,__zero_reg__
 5711 14ac C35A      		subi r28,lo8(163)
 5712 14ae D040      		sbci r29,hi8(163)
 5713               	.LSM640:
 5714 14b0 DD24      		clr r13
 5715               	.LSM641:
 5716 14b2 CD55      		subi r28,lo8(-163)
 5717 14b4 DF4F      		sbci r29,hi8(-163)
 5718 14b6 8881      		ld r24,Y
 5719 14b8 9981      		ldd r25,Y+1
 5720 14ba C35A      		subi r28,lo8(163)
 5721 14bc D040      		sbci r29,hi8(163)
 5722 14be C82A      		or r12,r24
 5723 14c0 D92A      		or r13,r25
 5724               	.LVL381:
 5725               	.LBE1031:
 5726               	.LBE1030:
 5727               	.LBB1032:
 5728               	.LSM642:
 5729 14c2 8091 7C00 		lds r24,124
 5730 14c6 807E      		andi r24,lo8(-32)
 5731               	.LVL382:
 5732               	.L204:
 5733 14c8 9091 7A00 		lds r25,122
 5734 14cc 96FD      		sbrc r25,6
 5735 14ce 00C0      		rjmp .L204
 5736 14d0 8260      		ori r24,lo8(2)
 5737               	.LVL383:
 5738 14d2 8093 7C00 		sts 124,r24
 5739 14d6 8091 7A00 		lds r24,122
 5740 14da 8064      		ori r24,lo8(64)
 5741 14dc 8093 7A00 		sts 122,r24
 5742               	.L205:
 5743               	.LBE1032:
 5744               	.LBB1033:
 5745               	.LBB1034:
 5746               	.LSM643:
 5747 14e0 8091 7A00 		lds r24,122
 5748 14e4 86FD      		sbrc r24,6
 5749 14e6 00C0      		rjmp .L205
 5750               	.LSM644:
 5751 14e8 A090 7800 		lds r10,120
 5752               	.LVL384:
 5753               	.LSM645:
 5754 14ec 8091 7900 		lds r24,121
 5755 14f0 CA55      		subi r28,lo8(-166)
 5756 14f2 DF4F      		sbci r29,hi8(-166)
 5757 14f4 8883      		st Y,r24
 5758 14f6 C65A      		subi r28,lo8(166)
 5759 14f8 D040      		sbci r29,hi8(166)
 5760 14fa CB55      		subi r28,lo8(-165)
 5761 14fc DF4F      		sbci r29,hi8(-165)
 5762 14fe 1882      		st Y,__zero_reg__
 5763 1500 C55A      		subi r28,lo8(165)
 5764 1502 D040      		sbci r29,hi8(165)
 5765               	.LSM646:
 5766 1504 BB24      		clr r11
 5767               	.LSM647:
 5768 1506 CB55      		subi r28,lo8(-165)
 5769 1508 DF4F      		sbci r29,hi8(-165)
 5770 150a A881      		ld r26,Y
 5771 150c B981      		ldd r27,Y+1
 5772 150e C55A      		subi r28,lo8(165)
 5773 1510 D040      		sbci r29,hi8(165)
 5774 1512 AA2A      		or r10,r26
 5775 1514 BB2A      		or r11,r27
 5776               	.LVL385:
 5777               	.LBE1034:
 5778               	.LBE1033:
 5779               	.LSM648:
 5780 1516 8091 0000 		lds r24,aGesture+1
 5781 151a 8823      		tst r24
 5782 151c 01F4      		brne .L206
 5783               	.LSM649:
 5784 151e 8091 0000 		lds r24,samples.2423
 5785 1522 9091 0000 		lds r25,samples.2423+1
 5786 1526 8A30      		cpi r24,10
 5787 1528 9105      		cpc r25,__zero_reg__
 5788 152a 00F0      		brlo .L206
 5789               	.L207:
 5790               	.LSM650:
 5791 152c F092 0000 		sts sx.2424+1,r15
 5792 1530 E092 0000 		sts sx.2424,r14
 5793               	.LSM651:
 5794 1534 D092 0000 		sts sy.2425+1,r13
 5795 1538 C092 0000 		sts sy.2425,r12
 5796               	.LSM652:
 5797 153c B092 0000 		sts sz.2426+1,r11
 5798 1540 A092 0000 		sts sz.2426,r10
 5799               	.LVL386:
 5800               	.LBB1035:
 5801               	.LBB1036:
 5802               	.LSM653:
 5803 1544 1092 0000 		sts aGesture,__zero_reg__
 5804               	.LSM654:
 5805 1548 81E0      		ldi r24,lo8(1)
 5806 154a 8093 0000 		sts aGesture+1,r24
 5807 154e 00C0      		rjmp .L208
 5808               	.LVL387:
 5809               	.L206:
 5810               	.LBE1036:
 5811               	.LBE1035:
 5812               	.LSM655:
 5813 1550 C701      		movw r24,r14
 5814 1552 880F      		lsl r24
 5815 1554 991F      		rol r25
 5816 1556 73E0      		ldi r23,3
 5817 1558 EE0C      	1:	lsl r14
 5818 155a FF1C      		rol r15
 5819 155c 7A95      		dec r23
 5820 155e 01F4      		brne 1b
 5821               	.LVL388:
 5822 1560 8E0D      		add r24,r14
 5823 1562 9F1D      		adc r25,r15
 5824 1564 4091 0000 		lds r20,aGesture+3
 5825 1568 5091 0000 		lds r21,aGesture+3+1
 5826 156c 6AE5      		ldi r22,lo8(90)
 5827 156e 862E      		mov r8,r22
 5828 1570 912C      		mov r9,__zero_reg__
 5829 1572 489D      		mul r20,r8
 5830 1574 9001      		movw r18,r0
 5831 1576 499D      		mul r20,r9
 5832 1578 300D      		add r19,r0
 5833 157a 589D      		mul r21,r8
 5834 157c 300D      		add r19,r0
 5835 157e 1124      		clr r1
 5836 1580 820F      		add r24,r18
 5837 1582 931F      		adc r25,r19
 5838 1584 E4E6      		ldi r30,lo8(100)
 5839 1586 F0E0      		ldi r31,hi8(100)
 5840 1588 BF01      		movw r22,r30
 5841 158a 0E94 0000 		call __udivmodhi4
 5842 158e 7B01      		movw r14,r22
 5843               	.LVL389:
 5844               	.LSM656:
 5845 1590 C601      		movw r24,r12
 5846 1592 880F      		lsl r24
 5847 1594 991F      		rol r25
 5848 1596 43E0      		ldi r20,3
 5849 1598 CC0C      	1:	lsl r12
 5850 159a DD1C      		rol r13
 5851 159c 4A95      		dec r20
 5852 159e 01F4      		brne 1b
 5853               	.LVL390:
 5854 15a0 8C0D      		add r24,r12
 5855 15a2 9D1D      		adc r25,r13
 5856 15a4 4091 0000 		lds r20,aGesture+5
 5857 15a8 5091 0000 		lds r21,aGesture+5+1
 5858 15ac 489D      		mul r20,r8
 5859 15ae 9001      		movw r18,r0
 5860 15b0 499D      		mul r20,r9
 5861 15b2 300D      		add r19,r0
 5862 15b4 589D      		mul r21,r8
 5863 15b6 300D      		add r19,r0
 5864 15b8 1124      		clr r1
 5865 15ba 820F      		add r24,r18
 5866 15bc 931F      		adc r25,r19
 5867 15be BF01      		movw r22,r30
 5868               	.LVL391:
 5869 15c0 0E94 0000 		call __udivmodhi4
 5870 15c4 6B01      		movw r12,r22
 5871               	.LVL392:
 5872               	.LSM657:
 5873 15c6 C501      		movw r24,r10
 5874 15c8 880F      		lsl r24
 5875 15ca 991F      		rol r25
 5876 15cc 23E0      		ldi r18,3
 5877 15ce AA0C      	1:	lsl r10
 5878 15d0 BB1C      		rol r11
 5879 15d2 2A95      		dec r18
 5880 15d4 01F4      		brne 1b
 5881               	.LVL393:
 5882 15d6 8A0D      		add r24,r10
 5883 15d8 9B1D      		adc r25,r11
 5884 15da 4091 0000 		lds r20,aGesture+7
 5885 15de 5091 0000 		lds r21,aGesture+7+1
 5886 15e2 489D      		mul r20,r8
 5887 15e4 9001      		movw r18,r0
 5888 15e6 499D      		mul r20,r9
 5889 15e8 300D      		add r19,r0
 5890 15ea 589D      		mul r21,r8
 5891 15ec 300D      		add r19,r0
 5892 15ee 1124      		clr r1
 5893 15f0 820F      		add r24,r18
 5894 15f2 931F      		adc r25,r19
 5895 15f4 BF01      		movw r22,r30
 5896               	.LVL394:
 5897 15f6 0E94 0000 		call __udivmodhi4
 5898 15fa 5B01      		movw r10,r22
 5899               	.LVL395:
 5900               	.L208:
 5901               	.LSM658:
 5902 15fc E091 0000 		lds r30,cumDelay.2427
 5903 1600 F091 0000 		lds r31,cumDelay.2427+1
 5904 1604 E40D      		add r30,r4
 5905 1606 F51D      		adc r31,r5
 5906 1608 F093 0000 		sts cumDelay.2427+1,r31
 5907 160c E093 0000 		sts cumDelay.2427,r30
 5908               	.LSM659:
 5909 1610 8091 0000 		lds r24,samples.2423
 5910 1614 9091 0000 		lds r25,samples.2423+1
 5911 1618 0196      		adiw r24,1
 5912 161a 9093 0000 		sts samples.2423+1,r25
 5913 161e 8093 0000 		sts samples.2423,r24
 5914 1622 8A30      		cpi r24,10
 5915 1624 9105      		cpc r25,__zero_reg__
 5916 1626 00F4      		brsh .+2
 5917 1628 00C0      		rjmp .L209
 5918               	.LVL396:
 5919               	.LBB1037:
 5920               	.LSM660:
 5921 162a 2091 0000 		lds r18,sz.2426
 5922 162e 3091 0000 		lds r19,sz.2426+1
 5923 1632 C955      		subi r28,lo8(-167)
 5924 1634 DF4F      		sbci r29,hi8(-167)
 5925 1636 3983      		std Y+1,r19
 5926 1638 2883      		st Y,r18
 5927 163a C75A      		subi r28,lo8(167)
 5928 163c D040      		sbci r29,hi8(167)
 5929               	.LVL397:
 5930               	.LSM661:
 5931 163e 8091 0000 		lds r24,sx.2424
 5932 1642 9091 0000 		lds r25,sx.2424+1
 5933 1646 9701      		movw r18,r14
 5934 1648 281B      		sub r18,r24
 5935 164a 390B      		sbc r19,r25
 5936               	.LSM662:
 5937 164c 98EE      		ldi r25,lo8(1000)
 5938 164e 492E      		mov r4,r25
 5939 1650 93E0      		ldi r25,hi8(1000)
 5940 1652 592E      		mov r5,r25
 5941               	.LVL398:
 5942 1654 249D      		mul r18,r4
 5943 1656 C001      		movw r24,r0
 5944 1658 259D      		mul r18,r5
 5945 165a 900D      		add r25,r0
 5946 165c 349D      		mul r19,r4
 5947 165e 900D      		add r25,r0
 5948 1660 1124      		clr r1
 5949 1662 BF01      		movw r22,r30
 5950 1664 0E94 0000 		call __divmodhi4
 5951 1668 3B01      		movw r6,r22
 5952               	.LVL399:
 5953               	.LSM663:
 5954 166a 8091 0000 		lds r24,sy.2425
 5955 166e 9091 0000 		lds r25,sy.2425+1
 5956 1672 9601      		movw r18,r12
 5957 1674 281B      		sub r18,r24
 5958 1676 390B      		sbc r19,r25
 5959               	.LSM664:
 5960 1678 249D      		mul r18,r4
 5961 167a C001      		movw r24,r0
 5962 167c 259D      		mul r18,r5
 5963 167e 900D      		add r25,r0
 5964 1680 349D      		mul r19,r4
 5965 1682 900D      		add r25,r0
 5966 1684 1124      		clr r1
 5967 1686 BF01      		movw r22,r30
 5968               	.LVL400:
 5969 1688 0E94 0000 		call __divmodhi4
 5970 168c 4B01      		movw r8,r22
 5971               	.LVL401:
 5972               	.LSM665:
 5973 168e C301      		movw r24,r6
 5974 1690 0596      		adiw r24,5
 5975 1692 8B30      		cpi r24,11
 5976 1694 9105      		cpc r25,__zero_reg__
 5977 1696 00F4      		brsh .L210
 5978 1698 6630      		cpi r22,6
 5979 169a 7105      		cpc r23,__zero_reg__
 5980 169c 04F4      		brge .L210
 5981               	.LSM666:
 5982 169e 8FEF      		ldi r24,hi8(-5)
 5983 16a0 6B3F      		cpi r22,lo8(-5)
 5984 16a2 7807      		cpc r23,r24
 5985 16a4 04F0      		brlt .L210
 5986               	.LSM667:
 5987 16a6 9501      		movw r18,r10
 5988 16a8 C955      		subi r28,lo8(-167)
 5989 16aa DF4F      		sbci r29,hi8(-167)
 5990 16ac A881      		ld r26,Y
 5991 16ae B981      		ldd r27,Y+1
 5992 16b0 C75A      		subi r28,lo8(167)
 5993 16b2 D040      		sbci r29,hi8(167)
 5994 16b4 2A1B      		sub r18,r26
 5995 16b6 3B0B      		sbc r19,r27
 5996               	.LSM668:
 5997 16b8 249D      		mul r18,r4
 5998 16ba C001      		movw r24,r0
 5999 16bc 259D      		mul r18,r5
 6000 16be 900D      		add r25,r0
 6001 16c0 349D      		mul r19,r4
 6002 16c2 900D      		add r25,r0
 6003 16c4 1124      		clr r1
 6004 16c6 BF01      		movw r22,r30
 6005               	.LVL402:
 6006 16c8 0E94 0000 		call __divmodhi4
 6007               	.LSM669:
 6008 16cc 6630      		cpi r22,6
 6009 16ce 7105      		cpc r23,__zero_reg__
 6010 16d0 04F4      		brge .L210
 6011               	.LSM670:
 6012 16d2 BFEF      		ldi r27,hi8(-5)
 6013 16d4 6B3F      		cpi r22,lo8(-5)
 6014 16d6 7B07      		cpc r23,r27
 6015 16d8 04F4      		brge .L211
 6016               	.L210:
 6017               	.LSM671:
 6018 16da 4424      		clr r4
 6019 16dc 4394      		inc r4
 6020 16de 4092 0000 		sts aMug+10,r4
 6021               	.LBB1038:
 6022 16e2 8FB7      		in r24,__SREG__
 6023               	.LVL403:
 6024               	.LBB1039:
 6025               	.LBB1040:
 6026               	.LSM672:
 6027               	/* #APP */
 6028               	 ;  50 "/opt/local/lib/gcc/avr/4.5.2/../../../../avr/include/util/atomic.h" 1
 6029 16e4 F894      		cli
 6030               	 ;  0 "" 2
 6031               	.LVL404:
 6032               	/* #NOAPP */
 6033               	.LBE1040:
 6034               	.LBE1039:
 6035               	.LSM673:
 6036 16e6 1092 0000 		sts activityTimer,__zero_reg__
 6037 16ea 1092 0000 		sts activityTimer+1,__zero_reg__
 6038 16ee 1092 0000 		sts activityTimer+2,__zero_reg__
 6039 16f2 1092 0000 		sts activityTimer+3,__zero_reg__
 6040               	.LVL405:
 6041               	.LBB1041:
 6042               	.LBB1042:
 6043               	.LSM674:
 6044 16f6 8FBF      		out __SREG__,r24
 6045               	.LSM675:
 6046               	.LBE1042:
 6047               	.LBE1041:
 6048               	.LBE1038:
 6049               	.LSM676:
 6050 16f8 E9E2      		ldi r30,lo8(41)
 6051 16fa 6E16      		cp r6,r30
 6052 16fc 7104      		cpc r7,__zero_reg__
 6053 16fe 04F0      		brlt .L212
 6054 1700 F9E2      		ldi r31,lo8(41)
 6055 1702 8F16      		cp r8,r31
 6056 1704 9104      		cpc r9,__zero_reg__
 6057 1706 04F0      		brlt .L211
 6058 1708 00C0      		rjmp .L262
 6059               	.L212:
 6060               	.LSM677:
 6061 170a 28ED      		ldi r18,lo8(-40)
 6062 170c 6216      		cp r6,r18
 6063 170e 2FEF      		ldi r18,hi8(-40)
 6064 1710 7206      		cpc r7,r18
 6065 1712 04F4      		brge .L211
 6066 1714 39E2      		ldi r19,lo8(41)
 6067 1716 8316      		cp r8,r19
 6068 1718 9104      		cpc r9,__zero_reg__
 6069 171a 04F0      		brlt .L211
 6070               	.L262:
 6071               	.LSM678:
 6072 171c 0E94 0000 		call gestureHandleValidGesture
 6073               	.LVL406:
 6074               	.LSM679:
 6075 1720 4092 0000 		sts aMug+10,r4
 6076               	.LBB1043:
 6077 1724 8FB7      		in r24,__SREG__
 6078               	.LVL407:
 6079               	.LBB1044:
 6080               	.LBB1045:
 6081               	.LSM680:
 6082               	/* #APP */
 6083               	 ;  50 "/opt/local/lib/gcc/avr/4.5.2/../../../../avr/include/util/atomic.h" 1
 6084 1726 F894      		cli
 6085               	 ;  0 "" 2
 6086               	.LVL408:
 6087               	/* #NOAPP */
 6088               	.LBE1045:
 6089               	.LBE1044:
 6090               	.LSM681:
 6091 1728 1092 0000 		sts activityTimer,__zero_reg__
 6092 172c 1092 0000 		sts activityTimer+1,__zero_reg__
 6093 1730 1092 0000 		sts activityTimer+2,__zero_reg__
 6094 1734 1092 0000 		sts activityTimer+3,__zero_reg__
 6095               	.LVL409:
 6096               	.LBB1046:
 6097               	.LBB1047:
 6098               	.LSM682:
 6099 1738 8FBF      		out __SREG__,r24
 6100               	.LSM683:
 6101               	.LVL410:
 6102               	.L211:
 6103               	.LBE1047:
 6104               	.LBE1046:
 6105               	.LBE1043:
 6106               	.LSM684:
 6107 173a F092 0000 		sts sx.2424+1,r15
 6108 173e E092 0000 		sts sx.2424,r14
 6109               	.LSM685:
 6110 1742 D092 0000 		sts sy.2425+1,r13
 6111 1746 C092 0000 		sts sy.2425,r12
 6112               	.LSM686:
 6113 174a B092 0000 		sts sz.2426+1,r11
 6114 174e A092 0000 		sts sz.2426,r10
 6115               	.LSM687:
 6116 1752 1092 0000 		sts samples.2423+1,__zero_reg__
 6117 1756 1092 0000 		sts samples.2423,__zero_reg__
 6118               	.LSM688:
 6119 175a 1092 0000 		sts cumDelay.2427+1,__zero_reg__
 6120 175e 1092 0000 		sts cumDelay.2427,__zero_reg__
 6121               	.LVL411:
 6122               	.L209:
 6123               	.LBE1037:
 6124               	.LSM689:
 6125 1762 F092 0000 		sts aGesture+3+1,r15
 6126 1766 E092 0000 		sts aGesture+3,r14
 6127               	.LSM690:
 6128 176a D092 0000 		sts aGesture+5+1,r13
 6129 176e C092 0000 		sts aGesture+5,r12
 6130               	.LSM691:
 6131 1772 B092 0000 		sts aGesture+7+1,r11
 6132 1776 A092 0000 		sts aGesture+7,r10
 6133               	.LBE1025:
 6134               	.LBE1024:
 6135               	.LSM692:
 6136 177a 0E94 0000 		call systemGetElapsedTime
 6137 177e 6093 0000 		sts startTime.2619,r22
 6138 1782 7093 0000 		sts startTime.2619+1,r23
 6139 1786 8093 0000 		sts startTime.2619+2,r24
 6140 178a 9093 0000 		sts startTime.2619+3,r25
 6141               	.LVL412:
 6142               	.L198:
 6143               	.LSM693:
 6144 178e 0E94 0000 		call mugWakeUpIfNeeded
 6145 1792 0C94 0000 		jmp .L250
 6146               	.LBE978:
 6147               	.LBE977:
 6148               	.LFE53:
 6150               	.global	eMugMsg0
 6151               		.section	.eeprom,"aw",@progbits
 6154               	eMugMsg0:
 6155 0000 00        		.string	""
 6156 0001 0000 0000 		.skip 63,0
 6156      0000 0000 
 6156      0000 0000 
 6156      0000 0000 
 6156      0000 0000 
 6157               	.global	eMugMsg1
 6160               	eMugMsg1:
 6161 0040 6973 2074 		.string	"is tired"
 6161      6972 6564 
 6161      00
 6162 0049 0000 0000 		.skip 55,0
 6162      0000 0000 
 6162      0000 0000 
 6162      0000 0000 
 6162      0000 0000 
 6163               	.global	eMugMsg2
 6166               	eMugMsg2:
 6167 0080 6973 206C 		.string	"is lonely"
 6167      6F6E 656C 
 6167      7900 
 6168 008a 0000 0000 		.skip 54,0
 6168      0000 0000 
 6168      0000 0000 
 6168      0000 0000 
 6168      0000 0000 
 6169               	.global	eMugMsg3
 6172               	eMugMsg3:
 6173 00c0 6973 2062 		.string	"is bored"
 6173      6F72 6564 
 6173      00
 6174 00c9 0000 0000 		.skip 55,0
 6174      0000 0000 
 6174      0000 0000 
 6174      0000 0000 
 6174      0000 0000 
 6175               	.global	eMugMsg4
 6178               	eMugMsg4:
 6179 0100 6973 2068 		.string	"is horney"
 6179      6F72 6E65 
 6179      7900 
 6180 010a 0000 0000 		.skip 54,0
 6180      0000 0000 
 6180      0000 0000 
 6180      0000 0000 
 6180      0000 0000 
 6181               	.global	eMugMsg5
 6184               	eMugMsg5:
 6185 0140 6973 6E27 		.string	"isn't sorry"
 6185      7420 736F 
 6185      7272 7900 
 6186 014c 0000 0000 		.skip 52,0
 6186      0000 0000 
 6186      0000 0000 
 6186      0000 0000 
 6186      0000 0000 
 6187               	.global	eMugMsg6
 6190               	eMugMsg6:
 6191 0180 6973 2072 		.string	"is relieved"
 6191      656C 6965 
 6191      7665 6400 
 6192 018c 0000 0000 		.skip 52,0
 6192      0000 0000 
 6192      0000 0000 
 6192      0000 0000 
 6192      0000 0000 
 6193               	.global	eMugMsg7
 6196               	eMugMsg7:
 6197 01c0 6973 2073 		.string	"is stoked"
 6197      746F 6B65 
 6197      6400 
 6198 01ca 0000 0000 		.skip 54,0
 6198      0000 0000 
 6198      0000 0000 
 6198      0000 0000 
 6198      0000 0000 
 6199               	.global	eMugMsg8
 6202               	eMugMsg8:
 6203 0200 6973 206C 		.string	"is late"
 6203      6174 6500 
 6204 0208 0000 0000 		.skip 56,0
 6204      0000 0000 
 6204      0000 0000 
 6204      0000 0000 
 6204      0000 0000 
 6205               	.global	eMugMsg9
 6208               	eMugMsg9:
 6209 0240 6973 206C 		.string	"is late"
 6209      6174 6500 
 6210 0248 0000 0000 		.skip 56,0
 6210      0000 0000 
 6210      0000 0000 
 6210      0000 0000 
 6210      0000 0000 
 6211               	.global	eMugMsg10
 6214               	eMugMsg10:
 6215 0280 6973 2076 		.string	"is very very late"
 6215      6572 7920 
 6215      7665 7279 
 6215      206C 6174 
 6215      6500 
 6216 0292 0000 0000 		.skip 46,0
 6216      0000 0000 
 6216      0000 0000 
 6216      0000 0000 
 6216      0000 0000 
 6217               	.global	eMugMsg11
 6220               	eMugMsg11:
 6221 02c0 6973 2074 		.string	"is tired"
 6221      6972 6564 
 6221      00
 6222 02c9 0000 0000 		.skip 55,0
 6222      0000 0000 
 6222      0000 0000 
 6222      0000 0000 
 6222      0000 0000 
 6223               	.global	eMugMsg12
 6226               	eMugMsg12:
 6227 0300 6973 206C 		.string	"is lonely"
 6227      6F6E 656C 
 6227      7900 
 6228 030a 0000 0000 		.skip 54,0
 6228      0000 0000 
 6228      0000 0000 
 6228      0000 0000 
 6228      0000 0000 
 6229               	.global	eMugMsg13
 6232               	eMugMsg13:
 6233 0340 6973 2062 		.string	"is bored"
 6233      6F72 6564 
 6233      00
 6234 0349 0000 0000 		.skip 55,0
 6234      0000 0000 
 6234      0000 0000 
 6234      0000 0000 
 6234      0000 0000 
 6235               	.global	eMugMsg14
 6238               	eMugMsg14:
 6239 0380 6973 2068 		.string	"is horney"
 6239      6F72 6E65 
 6239      7900 
 6240 038a 0000 0000 		.skip 54,0
 6240      0000 0000 
 6240      0000 0000 
 6240      0000 0000 
 6240      0000 0000 
 6241               	.global	eMugMsg15
 6244               	eMugMsg15:
 6245 03c0 4675 636B 		.string	"Fucking hell what to f***"
 6245      696E 6720 
 6245      6865 6C6C 
 6245      2077 6861 
 6245      7420 746F 
 6246 03da 0000 0000 		.skip 38,0
 6246      0000 0000 
 6246      0000 0000 
 6246      0000 0000 
 6246      0000 0000 
 6247               	.global	eMugMsg16
 6250               	eMugMsg16:
 6251 0400 6973 2072 		.string	"is relieved"
 6251      656C 6965 
 6251      7665 6400 
 6252 040c 0000 0000 		.skip 52,0
 6252      0000 0000 
 6252      0000 0000 
 6252      0000 0000 
 6252      0000 0000 
 6253               	.global	eMugMsg17
 6256               	eMugMsg17:
 6257 0440 6973 2073 		.string	"is stoked"
 6257      746F 6B65 
 6257      6400 
 6258 044a 0000 0000 		.skip 54,0
 6258      0000 0000 
 6258      0000 0000 
 6258      0000 0000 
 6258      0000 0000 
 6259               	.global	eMugMsg18
 6262               	eMugMsg18:
 6263 0480 6973 206C 		.string	"is late"
 6263      6174 6500 
 6264 0488 0000 0000 		.skip 56,0
 6264      0000 0000 
 6264      0000 0000 
 6264      0000 0000 
 6264      0000 0000 
 6265               	.global	eMugMsg19
 6268               	eMugMsg19:
 6269 04c0 4C61 7465 		.string	"Latest message"
 6269      7374 206D 
 6269      6573 7361 
 6269      6765 00
 6270 04cf 0000 0000 		.skip 49,0
 6270      0000 0000 
 6270      0000 0000 
 6270      0000 0000 
 6270      0000 0000 
 6271               	.global	eMugMsgs
 6272               		.data
 6275               	eMugMsgs:
 6276 034b 0000      		.word	eMugMsg0
 6277 034d 0000      		.word	eMugMsg1
 6278 034f 0000      		.word	eMugMsg2
 6279 0351 0000      		.word	eMugMsg3
 6280 0353 0000      		.word	eMugMsg4
 6281 0355 0000      		.word	eMugMsg5
 6282 0357 0000      		.word	eMugMsg6
 6283 0359 0000      		.word	eMugMsg7
 6284 035b 0000      		.word	eMugMsg8
 6285 035d 0000      		.word	eMugMsg9
 6286 035f 0000      		.word	eMugMsg10
 6287 0361 0000      		.word	eMugMsg11
 6288 0363 0000      		.word	eMugMsg12
 6289 0365 0000      		.word	eMugMsg13
 6290 0367 0000      		.word	eMugMsg14
 6291 0369 0000      		.word	eMugMsg15
 6292 036b 0000      		.word	eMugMsg16
 6293 036d 0000      		.word	eMugMsg17
 6294 036f 0000      		.word	eMugMsg18
 6295 0371 0000      		.word	eMugMsg19
 6296               	.global	mugConfigEep
 6297               		.section	.eeprom
 6300               	mugConfigEep:
 6301 0500 666F 6F62 		.string	"foobar"
 6301      6172 00
 6302 0507 0000 0000 		.skip 9,0
 6302      0000 0000 
 6302      00
 6303 0510 3131 3131 		.string	"1111"
 6303      00
 6304 0515 3131 3131 		.string	"1111"
 6304      00
 6305 051a 3141 00   		.string	"1A"
 6306 051d 1E        		.byte	30
 6307               		.comm activityTimer,4,1
 6308               	.global	mcusr_mirror
 6309               		.section	.noinit,"aw",@nobits
 6312               	mcusr_mirror:
 6313 0000 00        		.skip 1,0
 6314               		.lcomm aMug,188
 6315               		.lcomm terminalStatus,1
 6316               		.lcomm terminalBytesReceived,1
 6317               		.data
 6320               	msg.2505:
 6321 0373 00        		.string	""
 6322 0374 0000 0000 		.skip 63,0
 6322      0000 0000 
 6322      0000 0000 
 6322      0000 0000 
 6322      0000 0000 
 6323               		.lcomm elapsed.2481,4
 6324               		.lcomm elapsed.2465,4
 6325               		.lcomm terminalReceivedBuffer,128
 6326               		.lcomm startTime.2619,4
 6327               		.lcomm aGesture,71
 6328               		.lcomm cumDelay.2427,2
 6329               		.lcomm sz.2426,2
 6330               		.lcomm sy.2425,2
 6331               		.lcomm sx.2424,2
 6332               		.lcomm samples.2423,2
 6335               	currentPowerState.2603:
 6336 03b3 01        		.byte	1
 6521               	.Letext0:
DEFINED SYMBOLS
                            *ABS*:0000000000000000 main.c
/var/folders/5Q/5Q3l9LskF5CDOjJ1wbQQ6U+++TI/-Tmp-//ccxOnZ7b.s:2      *ABS*:000000000000003f __SREG__
/var/folders/5Q/5Q3l9LskF5CDOjJ1wbQQ6U+++TI/-Tmp-//ccxOnZ7b.s:3      *ABS*:000000000000003e __SP_H__
/var/folders/5Q/5Q3l9LskF5CDOjJ1wbQQ6U+++TI/-Tmp-//ccxOnZ7b.s:4      *ABS*:000000000000003d __SP_L__
/var/folders/5Q/5Q3l9LskF5CDOjJ1wbQQ6U+++TI/-Tmp-//ccxOnZ7b.s:5      *ABS*:0000000000000000 __tmp_reg__
/var/folders/5Q/5Q3l9LskF5CDOjJ1wbQQ6U+++TI/-Tmp-//ccxOnZ7b.s:6      *ABS*:0000000000000001 __zero_reg__
/var/folders/5Q/5Q3l9LskF5CDOjJ1wbQQ6U+++TI/-Tmp-//ccxOnZ7b.s:20     .text.__button_event_handler:0000000000000000 __button_event_handler
                             .bss:0000000000000000 aMug
/var/folders/5Q/5Q3l9LskF5CDOjJ1wbQQ6U+++TI/-Tmp-//ccxOnZ7b.s:40     .text.mugSetCurrentState:0000000000000000 mugSetCurrentState
/var/folders/5Q/5Q3l9LskF5CDOjJ1wbQQ6U+++TI/-Tmp-//ccxOnZ7b.s:62     .text.mugCheckBatteryLevel:0000000000000000 mugCheckBatteryLevel
/var/folders/5Q/5Q3l9LskF5CDOjJ1wbQQ6U+++TI/-Tmp-//ccxOnZ7b.s:165    .text.gestureHandleValidGesture:0000000000000000 gestureHandleValidGesture
/var/folders/5Q/5Q3l9LskF5CDOjJ1wbQQ6U+++TI/-Tmp-//ccxOnZ7b.s:188    .text.mugHandleLongButtonPress:0000000000000000 mugHandleLongButtonPress
/var/folders/5Q/5Q3l9LskF5CDOjJ1wbQQ6U+++TI/-Tmp-//ccxOnZ7b.s:211    .text.mugSwitchConsoleTo:0000000000000000 mugSwitchConsoleTo
/var/folders/5Q/5Q3l9LskF5CDOjJ1wbQQ6U+++TI/-Tmp-//ccxOnZ7b.s:246    .text.mugUpdateBatteryIcon:0000000000000000 mugUpdateBatteryIcon
/var/folders/5Q/5Q3l9LskF5CDOjJ1wbQQ6U+++TI/-Tmp-//ccxOnZ7b.s:412    .text.mugWakeUpIfNeeded:0000000000000000 mugWakeUpIfNeeded
/var/folders/5Q/5Q3l9LskF5CDOjJ1wbQQ6U+++TI/-Tmp-//ccxOnZ7b.s:6335   .data:00000000000003b3 currentPowerState.2603
                            *COM*:0000000000000004 activityTimer
/var/folders/5Q/5Q3l9LskF5CDOjJ1wbQQ6U+++TI/-Tmp-//ccxOnZ7b.s:587    .text.mugReadConfig:0000000000000000 mugReadConfig
/var/folders/5Q/5Q3l9LskF5CDOjJ1wbQQ6U+++TI/-Tmp-//ccxOnZ7b.s:6300   .eeprom:0000000000000500 mugConfigEep
/var/folders/5Q/5Q3l9LskF5CDOjJ1wbQQ6U+++TI/-Tmp-//ccxOnZ7b.s:613    .text.mugReadMessage:0000000000000000 mugReadMessage
/var/folders/5Q/5Q3l9LskF5CDOjJ1wbQQ6U+++TI/-Tmp-//ccxOnZ7b.s:6275   .data:000000000000034b eMugMsgs
/var/folders/5Q/5Q3l9LskF5CDOjJ1wbQQ6U+++TI/-Tmp-//ccxOnZ7b.s:6320   .data:0000000000000373 msg.2505
/var/folders/5Q/5Q3l9LskF5CDOjJ1wbQQ6U+++TI/-Tmp-//ccxOnZ7b.s:652    .text.mugSelectMessage:0000000000000000 mugSelectMessage
/var/folders/5Q/5Q3l9LskF5CDOjJ1wbQQ6U+++TI/-Tmp-//ccxOnZ7b.s:750    .text.switchToConsole:0000000000000000 switchToConsole
/var/folders/5Q/5Q3l9LskF5CDOjJ1wbQQ6U+++TI/-Tmp-//ccxOnZ7b.s:6323   .bss:00000000000000c2 elapsed.2465
/var/folders/5Q/5Q3l9LskF5CDOjJ1wbQQ6U+++TI/-Tmp-//ccxOnZ7b.s:1016   .text.mugShutdown:0000000000000000 mugShutdown
/var/folders/5Q/5Q3l9LskF5CDOjJ1wbQQ6U+++TI/-Tmp-//ccxOnZ7b.s:1227   .text.updateBatteryStatus:0000000000000000 updateBatteryStatus
/var/folders/5Q/5Q3l9LskF5CDOjJ1wbQQ6U+++TI/-Tmp-//ccxOnZ7b.s:1390   .text.skip_whitespace:0000000000000000 skip_whitespace
/var/folders/5Q/5Q3l9LskF5CDOjJ1wbQQ6U+++TI/-Tmp-//ccxOnZ7b.s:1436   .text.mugWriteConfig:0000000000000000 mugWriteConfig
/var/folders/5Q/5Q3l9LskF5CDOjJ1wbQQ6U+++TI/-Tmp-//ccxOnZ7b.s:1471   .text.mugPowerDown:0000000000000000 mugPowerDown
/var/folders/5Q/5Q3l9LskF5CDOjJ1wbQQ6U+++TI/-Tmp-//ccxOnZ7b.s:6316   .bss:00000000000000be elapsed.2481
/var/folders/5Q/5Q3l9LskF5CDOjJ1wbQQ6U+++TI/-Tmp-//ccxOnZ7b.s:1874   .text.mugHandleShortButtonPress:0000000000000000 mugHandleShortButtonPress
/var/folders/5Q/5Q3l9LskF5CDOjJ1wbQQ6U+++TI/-Tmp-//ccxOnZ7b.s:2024   .init3:0000000000000000 get_mcusr
/var/folders/5Q/5Q3l9LskF5CDOjJ1wbQQ6U+++TI/-Tmp-//ccxOnZ7b.s:6312   .noinit:0000000000000000 mcusr_mirror
/var/folders/5Q/5Q3l9LskF5CDOjJ1wbQQ6U+++TI/-Tmp-//ccxOnZ7b.s:2055   .text.__vector_8:0000000000000000 __vector_8
/var/folders/5Q/5Q3l9LskF5CDOjJ1wbQQ6U+++TI/-Tmp-//ccxOnZ7b.s:2208   .text.main:0000000000000000 main
/var/folders/5Q/5Q3l9LskF5CDOjJ1wbQQ6U+++TI/-Tmp-//ccxOnZ7b.s:6314   .bss:00000000000000bc terminalStatus
/var/folders/5Q/5Q3l9LskF5CDOjJ1wbQQ6U+++TI/-Tmp-//ccxOnZ7b.s:6315   .bss:00000000000000bd terminalBytesReceived
/var/folders/5Q/5Q3l9LskF5CDOjJ1wbQQ6U+++TI/-Tmp-//ccxOnZ7b.s:6324   .bss:00000000000000c6 terminalReceivedBuffer
/var/folders/5Q/5Q3l9LskF5CDOjJ1wbQQ6U+++TI/-Tmp-//ccxOnZ7b.s:6325   .bss:0000000000000146 startTime.2619
/var/folders/5Q/5Q3l9LskF5CDOjJ1wbQQ6U+++TI/-Tmp-//ccxOnZ7b.s:6326   .bss:000000000000014a aGesture
/var/folders/5Q/5Q3l9LskF5CDOjJ1wbQQ6U+++TI/-Tmp-//ccxOnZ7b.s:6331   .bss:0000000000000199 samples.2423
/var/folders/5Q/5Q3l9LskF5CDOjJ1wbQQ6U+++TI/-Tmp-//ccxOnZ7b.s:6330   .bss:0000000000000197 sx.2424
/var/folders/5Q/5Q3l9LskF5CDOjJ1wbQQ6U+++TI/-Tmp-//ccxOnZ7b.s:6329   .bss:0000000000000195 sy.2425
/var/folders/5Q/5Q3l9LskF5CDOjJ1wbQQ6U+++TI/-Tmp-//ccxOnZ7b.s:6328   .bss:0000000000000193 sz.2426
/var/folders/5Q/5Q3l9LskF5CDOjJ1wbQQ6U+++TI/-Tmp-//ccxOnZ7b.s:6327   .bss:0000000000000191 cumDelay.2427
/var/folders/5Q/5Q3l9LskF5CDOjJ1wbQQ6U+++TI/-Tmp-//ccxOnZ7b.s:6154   .eeprom:0000000000000000 eMugMsg0
/var/folders/5Q/5Q3l9LskF5CDOjJ1wbQQ6U+++TI/-Tmp-//ccxOnZ7b.s:6160   .eeprom:0000000000000040 eMugMsg1
/var/folders/5Q/5Q3l9LskF5CDOjJ1wbQQ6U+++TI/-Tmp-//ccxOnZ7b.s:6166   .eeprom:0000000000000080 eMugMsg2
/var/folders/5Q/5Q3l9LskF5CDOjJ1wbQQ6U+++TI/-Tmp-//ccxOnZ7b.s:6172   .eeprom:00000000000000c0 eMugMsg3
/var/folders/5Q/5Q3l9LskF5CDOjJ1wbQQ6U+++TI/-Tmp-//ccxOnZ7b.s:6178   .eeprom:0000000000000100 eMugMsg4
/var/folders/5Q/5Q3l9LskF5CDOjJ1wbQQ6U+++TI/-Tmp-//ccxOnZ7b.s:6184   .eeprom:0000000000000140 eMugMsg5
/var/folders/5Q/5Q3l9LskF5CDOjJ1wbQQ6U+++TI/-Tmp-//ccxOnZ7b.s:6190   .eeprom:0000000000000180 eMugMsg6
/var/folders/5Q/5Q3l9LskF5CDOjJ1wbQQ6U+++TI/-Tmp-//ccxOnZ7b.s:6196   .eeprom:00000000000001c0 eMugMsg7
/var/folders/5Q/5Q3l9LskF5CDOjJ1wbQQ6U+++TI/-Tmp-//ccxOnZ7b.s:6202   .eeprom:0000000000000200 eMugMsg8
/var/folders/5Q/5Q3l9LskF5CDOjJ1wbQQ6U+++TI/-Tmp-//ccxOnZ7b.s:6208   .eeprom:0000000000000240 eMugMsg9
/var/folders/5Q/5Q3l9LskF5CDOjJ1wbQQ6U+++TI/-Tmp-//ccxOnZ7b.s:6214   .eeprom:0000000000000280 eMugMsg10
/var/folders/5Q/5Q3l9LskF5CDOjJ1wbQQ6U+++TI/-Tmp-//ccxOnZ7b.s:6220   .eeprom:00000000000002c0 eMugMsg11
/var/folders/5Q/5Q3l9LskF5CDOjJ1wbQQ6U+++TI/-Tmp-//ccxOnZ7b.s:6226   .eeprom:0000000000000300 eMugMsg12
/var/folders/5Q/5Q3l9LskF5CDOjJ1wbQQ6U+++TI/-Tmp-//ccxOnZ7b.s:6232   .eeprom:0000000000000340 eMugMsg13
/var/folders/5Q/5Q3l9LskF5CDOjJ1wbQQ6U+++TI/-Tmp-//ccxOnZ7b.s:6238   .eeprom:0000000000000380 eMugMsg14
/var/folders/5Q/5Q3l9LskF5CDOjJ1wbQQ6U+++TI/-Tmp-//ccxOnZ7b.s:6244   .eeprom:00000000000003c0 eMugMsg15
/var/folders/5Q/5Q3l9LskF5CDOjJ1wbQQ6U+++TI/-Tmp-//ccxOnZ7b.s:6250   .eeprom:0000000000000400 eMugMsg16
/var/folders/5Q/5Q3l9LskF5CDOjJ1wbQQ6U+++TI/-Tmp-//ccxOnZ7b.s:6256   .eeprom:0000000000000440 eMugMsg17
/var/folders/5Q/5Q3l9LskF5CDOjJ1wbQQ6U+++TI/-Tmp-//ccxOnZ7b.s:6262   .eeprom:0000000000000480 eMugMsg18
/var/folders/5Q/5Q3l9LskF5CDOjJ1wbQQ6U+++TI/-Tmp-//ccxOnZ7b.s:6268   .eeprom:00000000000004c0 eMugMsg19

UNDEFINED SYMBOLS
__do_copy_data
__do_clear_bss
GPIOSetDirection
OLEDConstructMessage
OLEDSendMessage
__eerd_block_m1284p
snprintf
systemGetElapsedTime
XBeeRelease
OLEDDisable
OLEDRelease
systemMainPower
systemUsbHostConnected
isspace
__eewr_block_m1284p
usart_send_string
usart_send_bytes
__udivmodhi4
systemInitPower
systemInitClock
GPIOCreate
usart_init
OLEDCreate
OLEDEnable
OLEDWaitForResponse
XBeeCreate
XBeeLeaveSleepMode
XBeeEnterCommandMode
XBeeSetDestination
XBeeSetMyId
XBeeSetPanId
XBeeSetChannel
XBeeSetCoordinatorMode
XBeeSetEndDeviceAssociation
XBeeRetrieveMessage
XBeeLeaveCommandMode
buttonCreate
buttonUpState
buttonSetShortPressDelay
buttonSetLongPressDelay
buttonListenForEvents
XBeeHasData
strncpy
XBeeSendMessageNoBlock
XBeeSendByte
usart_read
usart_send_byte
atoi
__divmodhi4
